
AVRASM ver. 2.1.30  G:\SHEHRM\power\My-code\All\Debug\List\volt-m-dc.asm Sat Jan 21 23:38:37 2023

G:\SHEHRM\power\My-code\All\Debug\List\volt-m-dc.asm(1088): warning: Register r4 already defined by the .DEF directive
G:\SHEHRM\power\My-code\All\Debug\List\volt-m-dc.asm(1089): warning: Register r5 already defined by the .DEF directive
G:\SHEHRM\power\My-code\All\Debug\List\volt-m-dc.asm(1090): warning: Register r6 already defined by the .DEF directive
G:\SHEHRM\power\My-code\All\Debug\List\volt-m-dc.asm(1091): warning: Register r7 already defined by the .DEF directive
G:\SHEHRM\power\My-code\All\Debug\List\volt-m-dc.asm(1092): warning: Register r9 already defined by the .DEF directive
G:\SHEHRM\power\My-code\All\Debug\List\volt-m-dc.asm(1093): warning: Register r8 already defined by the .DEF directive
G:\SHEHRM\power\My-code\All\Debug\List\volt-m-dc.asm(1094): warning: Register r11 already defined by the .DEF directive
G:\SHEHRM\power\My-code\All\Debug\List\volt-m-dc.asm(1095): warning: Register r10 already defined by the .DEF directive
G:\SHEHRM\power\My-code\All\Debug\List\volt-m-dc.asm(1096): warning: Register r13 already defined by the .DEF directive
G:\SHEHRM\power\My-code\All\Debug\List\volt-m-dc.asm(1097): warning: Register r12 already defined by the .DEF directive
                 
                 
                 ;CodeVisionAVR C Compiler V3.12 Advanced
                 ;(C) Copyright 1998-2014 Pavel Haiduc, HP InfoTech s.r.l.
                 ;http://www.hpinfotech.com
                 
                 ;Build configuration    : Debug
                 ;Chip type              : ATmega16A
                 ;Program type           : Application
                 ;Clock frequency        : 8.000000 MHz
                 ;Memory model           : Small
                 ;Optimize for           : Size
                 ;(s)printf features     : float, width, precision
                 ;(s)scanf features      : int, width
                 ;External RAM size      : 0
                 ;Data Stack size        : 256 byte(s)
                 ;Heap size              : 0 byte(s)
                 ;Promote 'char' to 'int': Yes
                 ;'char' is unsigned     : Yes
                 ;8 bit enums            : Yes
                 ;Global 'const' stored in FLASH: Yes
                 ;Enhanced function parameter passing: Yes
                 ;Enhanced core instructions: On
                 ;Automatic register allocation for global variables: On
                 ;Smart register allocation: On
                 
                 	#define _MODEL_SMALL_
                 
                 	#pragma AVRPART ADMIN PART_NAME ATmega16A
                 	#pragma AVRPART MEMORY PROG_FLASH 16384
                 	#pragma AVRPART MEMORY EEPROM 512
                 	#pragma AVRPART MEMORY INT_SRAM SIZE 1024
                 	#pragma AVRPART MEMORY INT_SRAM START_ADDR 0x60
                 
                 	#define CALL_SUPPORTED 1
                 
                 	.LISTMAC
                 	.EQU UDRE=0x5
                 	.EQU RXC=0x7
                 	.EQU USR=0xB
                 	.EQU UDR=0xC
                 	.EQU SPSR=0xE
                 	.EQU SPDR=0xF
                 	.EQU EERE=0x0
                 	.EQU EEWE=0x1
                 	.EQU EEMWE=0x2
                 	.EQU EECR=0x1C
                 	.EQU EEDR=0x1D
                 	.EQU EEARL=0x1E
                 	.EQU EEARH=0x1F
                 	.EQU WDTCR=0x21
                 	.EQU MCUCR=0x35
                 	.EQU GICR=0x3B
                 	.EQU SPL=0x3D
                 	.EQU SPH=0x3E
                 	.EQU SREG=0x3F
                 
                 	.DEF R0X0=R0
                 	.DEF R0X1=R1
                 	.DEF R0X2=R2
                 	.DEF R0X3=R3
                 	.DEF R0X4=R4
                 	.DEF R0X5=R5
                 	.DEF R0X6=R6
                 	.DEF R0X7=R7
                 	.DEF R0X8=R8
                 	.DEF R0X9=R9
                 	.DEF R0XA=R10
                 	.DEF R0XB=R11
                 	.DEF R0XC=R12
                 	.DEF R0XD=R13
                 	.DEF R0XE=R14
                 	.DEF R0XF=R15
                 	.DEF R0X10=R16
                 	.DEF R0X11=R17
                 	.DEF R0X12=R18
                 	.DEF R0X13=R19
                 	.DEF R0X14=R20
                 	.DEF R0X15=R21
                 	.DEF R0X16=R22
                 	.DEF R0X17=R23
                 	.DEF R0X18=R24
                 	.DEF R0X19=R25
                 	.DEF R0X1A=R26
                 	.DEF R0X1B=R27
                 	.DEF R0X1C=R28
                 	.DEF R0X1D=R29
                 	.DEF R0X1E=R30
                 	.DEF R0X1F=R31
                 
                 	.EQU __SRAM_START=0x0060
                 	.EQU __SRAM_END=0x045F
                 	.EQU __DSTACK_SIZE=0x0100
                 	.EQU __HEAP_SIZE=0x0000
                 	.EQU __CLEAR_SRAM_SIZE=__SRAM_END-__SRAM_START+1
                 
                 	.MACRO __CPD1N
                 	CPI  R30,LOW(@0)
                 	LDI  R26,HIGH(@0)
                 	CPC  R31,R26
                 	LDI  R26,BYTE3(@0)
                 	CPC  R22,R26
                 	LDI  R26,BYTE4(@0)
                 	CPC  R23,R26
                 	.ENDM
                 
                 	.MACRO __CPD2N
                 	CPI  R26,LOW(@0)
                 	LDI  R30,HIGH(@0)
                 	CPC  R27,R30
                 	LDI  R30,BYTE3(@0)
                 	CPC  R24,R30
                 	LDI  R30,BYTE4(@0)
                 	CPC  R25,R30
                 	.ENDM
                 
                 	.MACRO __CPWRR
                 	CP   R@0,R@2
                 	CPC  R@1,R@3
                 	.ENDM
                 
                 	.MACRO __CPWRN
                 	CPI  R@0,LOW(@2)
                 	LDI  R30,HIGH(@2)
                 	CPC  R@1,R30
                 	.ENDM
                 
                 	.MACRO __ADDB1MN
                 	SUBI R30,LOW(-@0-(@1))
                 	.ENDM
                 
                 	.MACRO __ADDB2MN
                 	SUBI R26,LOW(-@0-(@1))
                 	.ENDM
                 
                 	.MACRO __ADDW1MN
                 	SUBI R30,LOW(-@0-(@1))
                 	SBCI R31,HIGH(-@0-(@1))
                 	.ENDM
                 
                 	.MACRO __ADDW2MN
                 	SUBI R26,LOW(-@0-(@1))
                 	SBCI R27,HIGH(-@0-(@1))
                 	.ENDM
                 
                 	.MACRO __ADDW1FN
                 	SUBI R30,LOW(-2*@0-(@1))
                 	SBCI R31,HIGH(-2*@0-(@1))
                 	.ENDM
                 
                 	.MACRO __ADDD1FN
                 	SUBI R30,LOW(-2*@0-(@1))
                 	SBCI R31,HIGH(-2*@0-(@1))
                 	SBCI R22,BYTE3(-2*@0-(@1))
                 	.ENDM
                 
                 	.MACRO __ADDD1N
                 	SUBI R30,LOW(-@0)
                 	SBCI R31,HIGH(-@0)
                 	SBCI R22,BYTE3(-@0)
                 	SBCI R23,BYTE4(-@0)
                 	.ENDM
                 
                 	.MACRO __ADDD2N
                 	SUBI R26,LOW(-@0)
                 	SBCI R27,HIGH(-@0)
                 	SBCI R24,BYTE3(-@0)
                 	SBCI R25,BYTE4(-@0)
                 	.ENDM
                 
                 	.MACRO __SUBD1N
                 	SUBI R30,LOW(@0)
                 	SBCI R31,HIGH(@0)
                 	SBCI R22,BYTE3(@0)
                 	SBCI R23,BYTE4(@0)
                 	.ENDM
                 
                 	.MACRO __SUBD2N
                 	SUBI R26,LOW(@0)
                 	SBCI R27,HIGH(@0)
                 	SBCI R24,BYTE3(@0)
                 	SBCI R25,BYTE4(@0)
                 	.ENDM
                 
                 	.MACRO __ANDBMNN
                 	LDS  R30,@0+(@1)
                 	ANDI R30,LOW(@2)
                 	STS  @0+(@1),R30
                 	.ENDM
                 
                 	.MACRO __ANDWMNN
                 	LDS  R30,@0+(@1)
                 	ANDI R30,LOW(@2)
                 	STS  @0+(@1),R30
                 	LDS  R30,@0+(@1)+1
                 	ANDI R30,HIGH(@2)
                 	STS  @0+(@1)+1,R30
                 	.ENDM
                 
                 	.MACRO __ANDD1N
                 	ANDI R30,LOW(@0)
                 	ANDI R31,HIGH(@0)
                 	ANDI R22,BYTE3(@0)
                 	ANDI R23,BYTE4(@0)
                 	.ENDM
                 
                 	.MACRO __ANDD2N
                 	ANDI R26,LOW(@0)
                 	ANDI R27,HIGH(@0)
                 	ANDI R24,BYTE3(@0)
                 	ANDI R25,BYTE4(@0)
                 	.ENDM
                 
                 	.MACRO __ORBMNN
                 	LDS  R30,@0+(@1)
                 	ORI  R30,LOW(@2)
                 	STS  @0+(@1),R30
                 	.ENDM
                 
                 	.MACRO __ORWMNN
                 	LDS  R30,@0+(@1)
                 	ORI  R30,LOW(@2)
                 	STS  @0+(@1),R30
                 	LDS  R30,@0+(@1)+1
                 	ORI  R30,HIGH(@2)
                 	STS  @0+(@1)+1,R30
                 	.ENDM
                 
                 	.MACRO __ORD1N
                 	ORI  R30,LOW(@0)
                 	ORI  R31,HIGH(@0)
                 	ORI  R22,BYTE3(@0)
                 	ORI  R23,BYTE4(@0)
                 	.ENDM
                 
                 	.MACRO __ORD2N
                 	ORI  R26,LOW(@0)
                 	ORI  R27,HIGH(@0)
                 	ORI  R24,BYTE3(@0)
                 	ORI  R25,BYTE4(@0)
                 	.ENDM
                 
                 	.MACRO __DELAY_USB
                 	LDI  R24,LOW(@0)
                 __DELAY_USB_LOOP:
                 	DEC  R24
                 	BRNE __DELAY_USB_LOOP
                 	.ENDM
                 
                 	.MACRO __DELAY_USW
                 	LDI  R24,LOW(@0)
                 	LDI  R25,HIGH(@0)
                 __DELAY_USW_LOOP:
                 	SBIW R24,1
                 	BRNE __DELAY_USW_LOOP
                 	.ENDM
                 
                 	.MACRO __GETD1S
                 	LDD  R30,Y+@0
                 	LDD  R31,Y+@0+1
                 	LDD  R22,Y+@0+2
                 	LDD  R23,Y+@0+3
                 	.ENDM
                 
                 	.MACRO __GETD2S
                 	LDD  R26,Y+@0
                 	LDD  R27,Y+@0+1
                 	LDD  R24,Y+@0+2
                 	LDD  R25,Y+@0+3
                 	.ENDM
                 
                 	.MACRO __PUTD1S
                 	STD  Y+@0,R30
                 	STD  Y+@0+1,R31
                 	STD  Y+@0+2,R22
                 	STD  Y+@0+3,R23
                 	.ENDM
                 
                 	.MACRO __PUTD2S
                 	STD  Y+@0,R26
                 	STD  Y+@0+1,R27
                 	STD  Y+@0+2,R24
                 	STD  Y+@0+3,R25
                 	.ENDM
                 
                 	.MACRO __PUTDZ2
                 	STD  Z+@0,R26
                 	STD  Z+@0+1,R27
                 	STD  Z+@0+2,R24
                 	STD  Z+@0+3,R25
                 	.ENDM
                 
                 	.MACRO __CLRD1S
                 	STD  Y+@0,R30
                 	STD  Y+@0+1,R30
                 	STD  Y+@0+2,R30
                 	STD  Y+@0+3,R30
                 	.ENDM
                 
                 	.MACRO __POINTB1MN
                 	LDI  R30,LOW(@0+(@1))
                 	.ENDM
                 
                 	.MACRO __POINTW1MN
                 	LDI  R30,LOW(@0+(@1))
                 	LDI  R31,HIGH(@0+(@1))
                 	.ENDM
                 
                 	.MACRO __POINTD1M
                 	LDI  R30,LOW(@0)
                 	LDI  R31,HIGH(@0)
                 	LDI  R22,BYTE3(@0)
                 	LDI  R23,BYTE4(@0)
                 	.ENDM
                 
                 	.MACRO __POINTW1FN
                 	LDI  R30,LOW(2*@0+(@1))
                 	LDI  R31,HIGH(2*@0+(@1))
                 	.ENDM
                 
                 	.MACRO __POINTD1FN
                 	LDI  R30,LOW(2*@0+(@1))
                 	LDI  R31,HIGH(2*@0+(@1))
                 	LDI  R22,BYTE3(2*@0+(@1))
                 	LDI  R23,BYTE4(2*@0+(@1))
                 	.ENDM
                 
                 	.MACRO __POINTB2MN
                 	LDI  R26,LOW(@0+(@1))
                 	.ENDM
                 
                 	.MACRO __POINTW2MN
                 	LDI  R26,LOW(@0+(@1))
                 	LDI  R27,HIGH(@0+(@1))
                 	.ENDM
                 
                 	.MACRO __POINTW2FN
                 	LDI  R26,LOW(2*@0+(@1))
                 	LDI  R27,HIGH(2*@0+(@1))
                 	.ENDM
                 
                 	.MACRO __POINTD2FN
                 	LDI  R26,LOW(2*@0+(@1))
                 	LDI  R27,HIGH(2*@0+(@1))
                 	LDI  R24,BYTE3(2*@0+(@1))
                 	LDI  R25,BYTE4(2*@0+(@1))
                 	.ENDM
                 
                 	.MACRO __POINTBRM
                 	LDI  R@0,LOW(@1)
                 	.ENDM
                 
                 	.MACRO __POINTWRM
                 	LDI  R@0,LOW(@2)
                 	LDI  R@1,HIGH(@2)
                 	.ENDM
                 
                 	.MACRO __POINTBRMN
                 	LDI  R@0,LOW(@1+(@2))
                 	.ENDM
                 
                 	.MACRO __POINTWRMN
                 	LDI  R@0,LOW(@2+(@3))
                 	LDI  R@1,HIGH(@2+(@3))
                 	.ENDM
                 
                 	.MACRO __POINTWRFN
                 	LDI  R@0,LOW(@2*2+(@3))
                 	LDI  R@1,HIGH(@2*2+(@3))
                 	.ENDM
                 
                 	.MACRO __GETD1N
                 	LDI  R30,LOW(@0)
                 	LDI  R31,HIGH(@0)
                 	LDI  R22,BYTE3(@0)
                 	LDI  R23,BYTE4(@0)
                 	.ENDM
                 
                 	.MACRO __GETD2N
                 	LDI  R26,LOW(@0)
                 	LDI  R27,HIGH(@0)
                 	LDI  R24,BYTE3(@0)
                 	LDI  R25,BYTE4(@0)
                 	.ENDM
                 
                 	.MACRO __GETB1MN
                 	LDS  R30,@0+(@1)
                 	.ENDM
                 
                 	.MACRO __GETB1HMN
                 	LDS  R31,@0+(@1)
                 	.ENDM
                 
                 	.MACRO __GETW1MN
                 	LDS  R30,@0+(@1)
                 	LDS  R31,@0+(@1)+1
                 	.ENDM
                 
                 	.MACRO __GETD1MN
                 	LDS  R30,@0+(@1)
                 	LDS  R31,@0+(@1)+1
                 	LDS  R22,@0+(@1)+2
                 	LDS  R23,@0+(@1)+3
                 	.ENDM
                 
                 	.MACRO __GETBRMN
                 	LDS  R@0,@1+(@2)
                 	.ENDM
                 
                 	.MACRO __GETWRMN
                 	LDS  R@0,@2+(@3)
                 	LDS  R@1,@2+(@3)+1
                 	.ENDM
                 
                 	.MACRO __GETWRZ
                 	LDD  R@0,Z+@2
                 	LDD  R@1,Z+@2+1
                 	.ENDM
                 
                 	.MACRO __GETD2Z
                 	LDD  R26,Z+@0
                 	LDD  R27,Z+@0+1
                 	LDD  R24,Z+@0+2
                 	LDD  R25,Z+@0+3
                 	.ENDM
                 
                 	.MACRO __GETB2MN
                 	LDS  R26,@0+(@1)
                 	.ENDM
                 
                 	.MACRO __GETW2MN
                 	LDS  R26,@0+(@1)
                 	LDS  R27,@0+(@1)+1
                 	.ENDM
                 
                 	.MACRO __GETD2MN
                 	LDS  R26,@0+(@1)
                 	LDS  R27,@0+(@1)+1
                 	LDS  R24,@0+(@1)+2
                 	LDS  R25,@0+(@1)+3
                 	.ENDM
                 
                 	.MACRO __PUTB1MN
                 	STS  @0+(@1),R30
                 	.ENDM
                 
                 	.MACRO __PUTW1MN
                 	STS  @0+(@1),R30
                 	STS  @0+(@1)+1,R31
                 	.ENDM
                 
                 	.MACRO __PUTD1MN
                 	STS  @0+(@1),R30
                 	STS  @0+(@1)+1,R31
                 	STS  @0+(@1)+2,R22
                 	STS  @0+(@1)+3,R23
                 	.ENDM
                 
                 	.MACRO __PUTB1EN
                 	LDI  R26,LOW(@0+(@1))
                 	LDI  R27,HIGH(@0+(@1))
                 	CALL __EEPROMWRB
                 	.ENDM
                 
                 	.MACRO __PUTW1EN
                 	LDI  R26,LOW(@0+(@1))
                 	LDI  R27,HIGH(@0+(@1))
                 	CALL __EEPROMWRW
                 	.ENDM
                 
                 	.MACRO __PUTD1EN
                 	LDI  R26,LOW(@0+(@1))
                 	LDI  R27,HIGH(@0+(@1))
                 	CALL __EEPROMWRD
                 	.ENDM
                 
                 	.MACRO __PUTBR0MN
                 	STS  @0+(@1),R0
                 	.ENDM
                 
                 	.MACRO __PUTBMRN
                 	STS  @0+(@1),R@2
                 	.ENDM
                 
                 	.MACRO __PUTWMRN
                 	STS  @0+(@1),R@2
                 	STS  @0+(@1)+1,R@3
                 	.ENDM
                 
                 	.MACRO __PUTBZR
                 	STD  Z+@1,R@0
                 	.ENDM
                 
                 	.MACRO __PUTWZR
                 	STD  Z+@2,R@0
                 	STD  Z+@2+1,R@1
                 	.ENDM
                 
                 	.MACRO __GETW1R
                 	MOV  R30,R@0
                 	MOV  R31,R@1
                 	.ENDM
                 
                 	.MACRO __GETW2R
                 	MOV  R26,R@0
                 	MOV  R27,R@1
                 	.ENDM
                 
                 	.MACRO __GETWRN
                 	LDI  R@0,LOW(@2)
                 	LDI  R@1,HIGH(@2)
                 	.ENDM
                 
                 	.MACRO __PUTW1R
                 	MOV  R@0,R30
                 	MOV  R@1,R31
                 	.ENDM
                 
                 	.MACRO __PUTW2R
                 	MOV  R@0,R26
                 	MOV  R@1,R27
                 	.ENDM
                 
                 	.MACRO __ADDWRN
                 	SUBI R@0,LOW(-@2)
                 	SBCI R@1,HIGH(-@2)
                 	.ENDM
                 
                 	.MACRO __ADDWRR
                 	ADD  R@0,R@2
                 	ADC  R@1,R@3
                 	.ENDM
                 
                 	.MACRO __SUBWRN
                 	SUBI R@0,LOW(@2)
                 	SBCI R@1,HIGH(@2)
                 	.ENDM
                 
                 	.MACRO __SUBWRR
                 	SUB  R@0,R@2
                 	SBC  R@1,R@3
                 	.ENDM
                 
                 	.MACRO __ANDWRN
                 	ANDI R@0,LOW(@2)
                 	ANDI R@1,HIGH(@2)
                 	.ENDM
                 
                 	.MACRO __ANDWRR
                 	AND  R@0,R@2
                 	AND  R@1,R@3
                 	.ENDM
                 
                 	.MACRO __ORWRN
                 	ORI  R@0,LOW(@2)
                 	ORI  R@1,HIGH(@2)
                 	.ENDM
                 
                 	.MACRO __ORWRR
                 	OR   R@0,R@2
                 	OR   R@1,R@3
                 	.ENDM
                 
                 	.MACRO __EORWRR
                 	EOR  R@0,R@2
                 	EOR  R@1,R@3
                 	.ENDM
                 
                 	.MACRO __GETWRS
                 	LDD  R@0,Y+@2
                 	LDD  R@1,Y+@2+1
                 	.ENDM
                 
                 	.MACRO __PUTBSR
                 	STD  Y+@1,R@0
                 	.ENDM
                 
                 	.MACRO __PUTWSR
                 	STD  Y+@2,R@0
                 	STD  Y+@2+1,R@1
                 	.ENDM
                 
                 	.MACRO __MOVEWRR
                 	MOV  R@0,R@2
                 	MOV  R@1,R@3
                 	.ENDM
                 
                 	.MACRO __INWR
                 	IN   R@0,@2
                 	IN   R@1,@2+1
                 	.ENDM
                 
                 	.MACRO __OUTWR
                 	OUT  @2+1,R@1
                 	OUT  @2,R@0
                 	.ENDM
                 
                 	.MACRO __CALL1MN
                 	LDS  R30,@0+(@1)
                 	LDS  R31,@0+(@1)+1
                 	ICALL
                 	.ENDM
                 
                 	.MACRO __CALL1FN
                 	LDI  R30,LOW(2*@0+(@1))
                 	LDI  R31,HIGH(2*@0+(@1))
                 	CALL __GETW1PF
                 	ICALL
                 	.ENDM
                 
                 	.MACRO __CALL2EN
                 	PUSH R26
                 	PUSH R27
                 	LDI  R26,LOW(@0+(@1))
                 	LDI  R27,HIGH(@0+(@1))
                 	CALL __EEPROMRDW
                 	POP  R27
                 	POP  R26
                 	ICALL
                 	.ENDM
                 
                 	.MACRO __CALL2EX
                 	SUBI R26,LOW(-@0)
                 	SBCI R27,HIGH(-@0)
                 	CALL __EEPROMRDD
                 	ICALL
                 	.ENDM
                 
                 	.MACRO __GETW1STACK
                 	IN   R30,SPL
                 	IN   R31,SPH
                 	ADIW R30,@0+1
                 	LD   R0,Z+
                 	LD   R31,Z
                 	MOV  R30,R0
                 	.ENDM
                 
                 	.MACRO __GETD1STACK
                 	IN   R30,SPL
                 	IN   R31,SPH
                 	ADIW R30,@0+1
                 	LD   R0,Z+
                 	LD   R1,Z+
                 	LD   R22,Z
                 	MOVW R30,R0
                 	.ENDM
                 
                 	.MACRO __NBST
                 	BST  R@0,@1
                 	IN   R30,SREG
                 	LDI  R31,0x40
                 	EOR  R30,R31
                 	OUT  SREG,R30
                 	.ENDM
                 
                 
                 	.MACRO __PUTB1SN
                 	LDD  R26,Y+@0
                 	LDD  R27,Y+@0+1
                 	SUBI R26,LOW(-@1)
                 	SBCI R27,HIGH(-@1)
                 	ST   X,R30
                 	.ENDM
                 
                 	.MACRO __PUTW1SN
                 	LDD  R26,Y+@0
                 	LDD  R27,Y+@0+1
                 	SUBI R26,LOW(-@1)
                 	SBCI R27,HIGH(-@1)
                 	ST   X+,R30
                 	ST   X,R31
                 	.ENDM
                 
                 	.MACRO __PUTD1SN
                 	LDD  R26,Y+@0
                 	LDD  R27,Y+@0+1
                 	SUBI R26,LOW(-@1)
                 	SBCI R27,HIGH(-@1)
                 	CALL __PUTDP1
                 	.ENDM
                 
                 	.MACRO __PUTB1SNS
                 	LDD  R26,Y+@0
                 	LDD  R27,Y+@0+1
                 	ADIW R26,@1
                 	ST   X,R30
                 	.ENDM
                 
                 	.MACRO __PUTW1SNS
                 	LDD  R26,Y+@0
                 	LDD  R27,Y+@0+1
                 	ADIW R26,@1
                 	ST   X+,R30
                 	ST   X,R31
                 	.ENDM
                 
                 	.MACRO __PUTD1SNS
                 	LDD  R26,Y+@0
                 	LDD  R27,Y+@0+1
                 	ADIW R26,@1
                 	CALL __PUTDP1
                 	.ENDM
                 
                 	.MACRO __PUTB1PMN
                 	LDS  R26,@0
                 	LDS  R27,@0+1
                 	SUBI R26,LOW(-@1)
                 	SBCI R27,HIGH(-@1)
                 	ST   X,R30
                 	.ENDM
                 
                 	.MACRO __PUTW1PMN
                 	LDS  R26,@0
                 	LDS  R27,@0+1
                 	SUBI R26,LOW(-@1)
                 	SBCI R27,HIGH(-@1)
                 	ST   X+,R30
                 	ST   X,R31
                 	.ENDM
                 
                 	.MACRO __PUTD1PMN
                 	LDS  R26,@0
                 	LDS  R27,@0+1
                 	SUBI R26,LOW(-@1)
                 	SBCI R27,HIGH(-@1)
                 	CALL __PUTDP1
                 	.ENDM
                 
                 	.MACRO __PUTB1PMNS
                 	LDS  R26,@0
                 	LDS  R27,@0+1
                 	ADIW R26,@1
                 	ST   X,R30
                 	.ENDM
                 
                 	.MACRO __PUTW1PMNS
                 	LDS  R26,@0
                 	LDS  R27,@0+1
                 	ADIW R26,@1
                 	ST   X+,R30
                 	ST   X,R31
                 	.ENDM
                 
                 	.MACRO __PUTD1PMNS
                 	LDS  R26,@0
                 	LDS  R27,@0+1
                 	ADIW R26,@1
                 	CALL __PUTDP1
                 	.ENDM
                 
                 	.MACRO __PUTB1RN
                 	MOVW R26,R@0
                 	SUBI R26,LOW(-@1)
                 	SBCI R27,HIGH(-@1)
                 	ST   X,R30
                 	.ENDM
                 
                 	.MACRO __PUTW1RN
                 	MOVW R26,R@0
                 	SUBI R26,LOW(-@1)
                 	SBCI R27,HIGH(-@1)
                 	ST   X+,R30
                 	ST   X,R31
                 	.ENDM
                 
                 	.MACRO __PUTD1RN
                 	MOVW R26,R@0
                 	SUBI R26,LOW(-@1)
                 	SBCI R27,HIGH(-@1)
                 	CALL __PUTDP1
                 	.ENDM
                 
                 	.MACRO __PUTB1RNS
                 	MOVW R26,R@0
                 	ADIW R26,@1
                 	ST   X,R30
                 	.ENDM
                 
                 	.MACRO __PUTW1RNS
                 	MOVW R26,R@0
                 	ADIW R26,@1
                 	ST   X+,R30
                 	ST   X,R31
                 	.ENDM
                 
                 	.MACRO __PUTD1RNS
                 	MOVW R26,R@0
                 	ADIW R26,@1
                 	CALL __PUTDP1
                 	.ENDM
                 
                 	.MACRO __PUTB1RON
                 	MOV  R26,R@0
                 	MOV  R27,R@1
                 	SUBI R26,LOW(-@2)
                 	SBCI R27,HIGH(-@2)
                 	ST   X,R30
                 	.ENDM
                 
                 	.MACRO __PUTW1RON
                 	MOV  R26,R@0
                 	MOV  R27,R@1
                 	SUBI R26,LOW(-@2)
                 	SBCI R27,HIGH(-@2)
                 	ST   X+,R30
                 	ST   X,R31
                 	.ENDM
                 
                 	.MACRO __PUTD1RON
                 	MOV  R26,R@0
                 	MOV  R27,R@1
                 	SUBI R26,LOW(-@2)
                 	SBCI R27,HIGH(-@2)
                 	CALL __PUTDP1
                 	.ENDM
                 
                 	.MACRO __PUTB1RONS
                 	MOV  R26,R@0
                 	MOV  R27,R@1
                 	ADIW R26,@2
                 	ST   X,R30
                 	.ENDM
                 
                 	.MACRO __PUTW1RONS
                 	MOV  R26,R@0
                 	MOV  R27,R@1
                 	ADIW R26,@2
                 	ST   X+,R30
                 	ST   X,R31
                 	.ENDM
                 
                 	.MACRO __PUTD1RONS
                 	MOV  R26,R@0
                 	MOV  R27,R@1
                 	ADIW R26,@2
                 	CALL __PUTDP1
                 	.ENDM
                 
                 
                 	.MACRO __GETB1SX
                 	MOVW R30,R28
                 	SUBI R30,LOW(-@0)
                 	SBCI R31,HIGH(-@0)
                 	LD   R30,Z
                 	.ENDM
                 
                 	.MACRO __GETB1HSX
                 	MOVW R30,R28
                 	SUBI R30,LOW(-@0)
                 	SBCI R31,HIGH(-@0)
                 	LD   R31,Z
                 	.ENDM
                 
                 	.MACRO __GETW1SX
                 	MOVW R30,R28
                 	SUBI R30,LOW(-@0)
                 	SBCI R31,HIGH(-@0)
                 	LD   R0,Z+
                 	LD   R31,Z
                 	MOV  R30,R0
                 	.ENDM
                 
                 	.MACRO __GETD1SX
                 	MOVW R30,R28
                 	SUBI R30,LOW(-@0)
                 	SBCI R31,HIGH(-@0)
                 	LD   R0,Z+
                 	LD   R1,Z+
                 	LD   R22,Z+
                 	LD   R23,Z
                 	MOVW R30,R0
                 	.ENDM
                 
                 	.MACRO __GETB2SX
                 	MOVW R26,R28
                 	SUBI R26,LOW(-@0)
                 	SBCI R27,HIGH(-@0)
                 	LD   R26,X
                 	.ENDM
                 
                 	.MACRO __GETW2SX
                 	MOVW R26,R28
                 	SUBI R26,LOW(-@0)
                 	SBCI R27,HIGH(-@0)
                 	LD   R0,X+
                 	LD   R27,X
                 	MOV  R26,R0
                 	.ENDM
                 
                 	.MACRO __GETD2SX
                 	MOVW R26,R28
                 	SUBI R26,LOW(-@0)
                 	SBCI R27,HIGH(-@0)
                 	LD   R0,X+
                 	LD   R1,X+
                 	LD   R24,X+
                 	LD   R25,X
                 	MOVW R26,R0
                 	.ENDM
                 
                 	.MACRO __GETBRSX
                 	MOVW R30,R28
                 	SUBI R30,LOW(-@1)
                 	SBCI R31,HIGH(-@1)
                 	LD   R@0,Z
                 	.ENDM
                 
                 	.MACRO __GETWRSX
                 	MOVW R30,R28
                 	SUBI R30,LOW(-@2)
                 	SBCI R31,HIGH(-@2)
                 	LD   R@0,Z+
                 	LD   R@1,Z
                 	.ENDM
                 
                 	.MACRO __GETBRSX2
                 	MOVW R26,R28
                 	SUBI R26,LOW(-@1)
                 	SBCI R27,HIGH(-@1)
                 	LD   R@0,X
                 	.ENDM
                 
                 	.MACRO __GETWRSX2
                 	MOVW R26,R28
                 	SUBI R26,LOW(-@2)
                 	SBCI R27,HIGH(-@2)
                 	LD   R@0,X+
                 	LD   R@1,X
                 	.ENDM
                 
                 	.MACRO __LSLW8SX
                 	MOVW R30,R28
                 	SUBI R30,LOW(-@0)
                 	SBCI R31,HIGH(-@0)
                 	LD   R31,Z
                 	CLR  R30
                 	.ENDM
                 
                 	.MACRO __PUTB1SX
                 	MOVW R26,R28
                 	SUBI R26,LOW(-@0)
                 	SBCI R27,HIGH(-@0)
                 	ST   X,R30
                 	.ENDM
                 
                 	.MACRO __PUTW1SX
                 	MOVW R26,R28
                 	SUBI R26,LOW(-@0)
                 	SBCI R27,HIGH(-@0)
                 	ST   X+,R30
                 	ST   X,R31
                 	.ENDM
                 
                 	.MACRO __PUTD1SX
                 	MOVW R26,R28
                 	SUBI R26,LOW(-@0)
                 	SBCI R27,HIGH(-@0)
                 	ST   X+,R30
                 	ST   X+,R31
                 	ST   X+,R22
                 	ST   X,R23
                 	.ENDM
                 
                 	.MACRO __CLRW1SX
                 	MOVW R26,R28
                 	SUBI R26,LOW(-@0)
                 	SBCI R27,HIGH(-@0)
                 	ST   X+,R30
                 	ST   X,R30
                 	.ENDM
                 
                 	.MACRO __CLRD1SX
                 	MOVW R26,R28
                 	SUBI R26,LOW(-@0)
                 	SBCI R27,HIGH(-@0)
                 	ST   X+,R30
                 	ST   X+,R30
                 	ST   X+,R30
                 	ST   X,R30
                 	.ENDM
                 
                 	.MACRO __PUTB2SX
                 	MOVW R30,R28
                 	SUBI R30,LOW(-@0)
                 	SBCI R31,HIGH(-@0)
                 	ST   Z,R26
                 	.ENDM
                 
                 	.MACRO __PUTW2SX
                 	MOVW R30,R28
                 	SUBI R30,LOW(-@0)
                 	SBCI R31,HIGH(-@0)
                 	ST   Z+,R26
                 	ST   Z,R27
                 	.ENDM
                 
                 	.MACRO __PUTD2SX
                 	MOVW R30,R28
                 	SUBI R30,LOW(-@0)
                 	SBCI R31,HIGH(-@0)
                 	ST   Z+,R26
                 	ST   Z+,R27
                 	ST   Z+,R24
                 	ST   Z,R25
                 	.ENDM
                 
                 	.MACRO __PUTBSRX
                 	MOVW R30,R28
                 	SUBI R30,LOW(-@1)
                 	SBCI R31,HIGH(-@1)
                 	ST   Z,R@0
                 	.ENDM
                 
                 	.MACRO __PUTWSRX
                 	MOVW R30,R28
                 	SUBI R30,LOW(-@2)
                 	SBCI R31,HIGH(-@2)
                 	ST   Z+,R@0
                 	ST   Z,R@1
                 	.ENDM
                 
                 	.MACRO __PUTB1SNX
                 	MOVW R26,R28
                 	SUBI R26,LOW(-@0)
                 	SBCI R27,HIGH(-@0)
                 	LD   R0,X+
                 	LD   R27,X
                 	MOV  R26,R0
                 	SUBI R26,LOW(-@1)
                 	SBCI R27,HIGH(-@1)
                 	ST   X,R30
                 	.ENDM
                 
                 	.MACRO __PUTW1SNX
                 	MOVW R26,R28
                 	SUBI R26,LOW(-@0)
                 	SBCI R27,HIGH(-@0)
                 	LD   R0,X+
                 	LD   R27,X
                 	MOV  R26,R0
                 	SUBI R26,LOW(-@1)
                 	SBCI R27,HIGH(-@1)
                 	ST   X+,R30
                 	ST   X,R31
                 	.ENDM
                 
                 	.MACRO __PUTD1SNX
                 	MOVW R26,R28
                 	SUBI R26,LOW(-@0)
                 	SBCI R27,HIGH(-@0)
                 	LD   R0,X+
                 	LD   R27,X
                 	MOV  R26,R0
                 	SUBI R26,LOW(-@1)
                 	SBCI R27,HIGH(-@1)
                 	ST   X+,R30
                 	ST   X+,R31
                 	ST   X+,R22
                 	ST   X,R23
                 	.ENDM
                 
                 	.MACRO __MULBRR
                 	MULS R@0,R@1
                 	MOVW R30,R0
                 	.ENDM
                 
                 	.MACRO __MULBRRU
                 	MUL  R@0,R@1
                 	MOVW R30,R0
                 	.ENDM
                 
                 	.MACRO __MULBRR0
                 	MULS R@0,R@1
                 	.ENDM
                 
                 	.MACRO __MULBRRU0
                 	MUL  R@0,R@1
                 	.ENDM
                 
                 	.MACRO __MULBNWRU
                 	LDI  R26,@2
                 	MUL  R26,R@0
                 	MOVW R30,R0
                 	MUL  R26,R@1
                 	ADD  R31,R0
                 	.ENDM
                 
                 ;NAME DEFINITIONS FOR GLOBAL VARIABLES ALLOCATED TO REGISTERS
                 	.DEF _Spi_Counter=R4
                 	.DEF _Spi_Counter_msb=R5
                 	.DEF _Send_Data=R6
                 	.DEF _Send_Data_msb=R7
                 	.DEF _rx_wr_index=R9
                 	.DEF _rx_rd_index=R8
                 	.DEF _rx_counter=R11
                 	.DEF _tx_wr_index=R10
                 	.DEF _tx_rd_index=R13
                 	.DEF _tx_counter=R12
                 
                 	.CSEG
                 	.ORG 0x00
                 
                 ;START OF CODE MARKER
                 __START_OF_CODE:
                 
                 ;INTERRUPT VECTORS
000000 940c 00ce 	JMP  __RESET
000002 940c 0164 	JMP  _ext_int0_isr
000004 940c 0169 	JMP  _ext_int1_isr
000006 940c 0000 	JMP  0x00
000008 940c 0000 	JMP  0x00
00000a 940c 0000 	JMP  0x00
00000c 940c 0000 	JMP  0x00
00000e 940c 0000 	JMP  0x00
000010 940c 0000 	JMP  0x00
000012 940c 0000 	JMP  0x00
000014 940c 0000 	JMP  0x00
000016 940c 0108 	JMP  _usart_rx_isr
000018 940c 0000 	JMP  0x00
00001a 940c 0138 	JMP  _usart_tx_isr
00001c 940c 0000 	JMP  0x00
00001e 940c 0000 	JMP  0x00
000020 940c 0000 	JMP  0x00
000022 940c 0000 	JMP  0x00
000024 940c 0000 	JMP  0x00
000026 940c 0000 	JMP  0x00
000028 940c 0000 	JMP  0x00
                 
                 ;REGISTER BIT VARIABLES INITIALIZATION
                 __REG_BIT_VARS:
00002a 0000      	.DW  0x0000
                 
                 ;GLOBAL REGISTER VARIABLES INITIALIZATION
                 __REG_VARS:
00002b 0000
00002c 0000      	.DB  0x0,0x0,0x0,0x0
00002d 0000
00002e 0000      	.DB  0x0,0x0,0x0,0x0
00002f 0000      	.DB  0x0,0x0
                 
                 _0x0:
000030 6f4c
000031 6461
000032 6e69
000033 2e67      	.DB  0x4C,0x6F,0x61,0x64,0x69,0x6E,0x67,0x2E
000034 2e2e
000035 0020
000036 6f4c
000037 6461      	.DB  0x2E,0x2E,0x20,0x0,0x4C,0x6F,0x61,0x64
000038 6e69
000039 2e67
00003a 2e2e
00003b 0d20      	.DB  0x69,0x6E,0x67,0x2E,0x2E,0x2E,0x20,0xD
00003c 000a
00003d 0023
00003e 6f56
00003f 746c      	.DB  0xA,0x0,0x23,0x0,0x56,0x6F,0x6C,0x74
000040 6761
000041 2065
000042 203d
000043 3225      	.DB  0x61,0x67,0x65,0x20,0x3D,0x20,0x25,0x32
000044 322e
000045 2066
000046 5600
000047 5600      	.DB  0x2E,0x32,0x66,0x20,0x0,0x56,0x0,0x56
000048 6c6f
000049 6174
00004a 6567
00004b 3d20      	.DB  0x6F,0x6C,0x74,0x61,0x67,0x65,0x20,0x3D
00004c 2520
00004d 2e32
00004e 3032
00004f 2066      	.DB  0x20,0x25,0x32,0x2E,0x32,0x30,0x66,0x20
000050 0d76
000051 000a
000052 0a0d
000053 6547      	.DB  0x76,0xD,0xA,0x0,0xD,0xA,0x47,0x65
000054 2074
000055 2040
000056 6f56
000057 746c      	.DB  0x74,0x20,0x40,0x20,0x56,0x6F,0x6C,0x74
000058 6761
000059 3a65
00005a 247e
00005b 2020      	.DB  0x61,0x67,0x65,0x3A,0x7E,0x24,0x20,0x20
00005c 3e00
00005d 7355
00005e 7261
00005f 2074      	.DB  0x0,0x3E,0x55,0x73,0x61,0x72,0x74,0x20
000060 6f6d
000061 6564
000062 003c
000063 0a0d      	.DB  0x6D,0x6F,0x64,0x65,0x3C,0x0,0xD,0xA
000064 6f56
000065 746c
000066 6761
000067 2d65      	.DB  0x56,0x6F,0x6C,0x74,0x61,0x67,0x65,0x2D
000068 0d2d
000069 000a
00006a 0a0d
00006b 6f56      	.DB  0x2D,0xD,0xA,0x0,0xD,0xA,0x56,0x6F
00006c 746c
00006d 6761
00006e 2b65
00006f 0d2b      	.DB  0x6C,0x74,0x61,0x67,0x65,0x2B,0x2B,0xD
000070 000a
000071 0a0d
000072 2020
000073 2020      	.DB  0xA,0x0,0xD,0xA,0x20,0x20,0x20,0x20
000074 2020
000075 2020
000076 5b20
000077 6820      	.DB  0x20,0x20,0x20,0x20,0x20,0x5B,0x20,0x68
000078 6c65
000079 2070
00007a 207c
00007b 5247      	.DB  0x65,0x6C,0x70,0x20,0x7C,0x20,0x47,0x52
00007c 554f
00007d 2050
00007e 207c
00007f 4956      	.DB  0x4F,0x55,0x50,0x20,0x7C,0x20,0x56,0x49
000080 5745
000081 7c20
000082 5320
000083 4154      	.DB  0x45,0x57,0x20,0x7C,0x20,0x53,0x54,0x41
000084 5452
000085 7c20
000086 4220
000087 302e      	.DB  0x52,0x54,0x20,0x7C,0x20,0x42,0x2E,0x30
000088 313d
000089 0d5d
00008a 200a
00008b 0d00      	.DB  0x3D,0x31,0x5D,0xD,0xA,0x20,0x0,0xD
00008c 200a
00008d 2020
00008e 2020
00008f 2020      	.DB  0xA,0x20,0x20,0x20,0x20,0x20,0x20,0x20
000090 2020
000091 205b
000092 6568
000093 706c      	.DB  0x20,0x20,0x5B,0x20,0x68,0x65,0x6C,0x70
000094 7c20
000095 4720
000096 4f52
000097 5055      	.DB  0x20,0x7C,0x20,0x47,0x52,0x4F,0x55,0x50
000098 7c20
000099 5620
00009a 4549
00009b 2057      	.DB  0x20,0x7C,0x20,0x56,0x49,0x45,0x57,0x20
00009c 207c
00009d 5453
00009e 5241
00009f 2054      	.DB  0x7C,0x20,0x53,0x54,0x41,0x52,0x54,0x20
0000a0 207c
0000a1 2e41
0000a2 3d30
0000a3 5d31      	.DB  0x7C,0x20,0x41,0x2E,0x30,0x3D,0x31,0x5D
0000a4 0a0d
0000a5 0020
0000a6 0a0d
0000a7 6f63      	.DB  0xD,0xA,0x20,0x0,0xD,0xA,0x63,0x6F
0000a8 6d6d
0000a9 6e61
0000aa 2064
0000ab 6f6e      	.DB  0x6D,0x6D,0x61,0x6E,0x64,0x20,0x6E,0x6F
0000ac 2074
0000ad 7566
0000ae 6e6f
0000af 0d64      	.DB  0x74,0x20,0x66,0x75,0x6F,0x6E,0x64,0xD
0000b0 000a
0000b1 6b3e
0000b2 7965
0000b3 6d20      	.DB  0xA,0x0,0x3E,0x6B,0x65,0x79,0x20,0x6D
0000b4 646f
0000b5 3c65
G:\SHEHRM\power\My-code\All\Debug\List\volt-m-dc.asm(1172): warning: .cseg .db misalignment - padding zero byte
0000b6 0000      	.DB  0x6F,0x64,0x65,0x3C,0x0
                 _0x2000003:
0000b7 c080      	.DB  0x80,0xC0
                 _0x2020000:
0000b8 4e2d
0000b9 4e41
G:\SHEHRM\power\My-code\All\Debug\List\volt-m-dc.asm(1176): warning: .cseg .db misalignment - padding zero byte
0000ba 0000      	.DB  0x2D,0x4E,0x41,0x4E,0x0
                 _0x20C0060:
G:\SHEHRM\power\My-code\All\Debug\List\volt-m-dc.asm(1178): warning: .cseg .db misalignment - padding zero byte
0000bb 0001      	.DB  0x1
                 _0x20C0000:
0000bc 4e2d
0000bd 4e41
0000be 4900
0000bf 464e      	.DB  0x2D,0x4E,0x41,0x4E,0x0,0x49,0x4E,0x46
G:\SHEHRM\power\My-code\All\Debug\List\volt-m-dc.asm(1181): warning: .cseg .db misalignment - padding zero byte
0000c0 0000      	.DB  0x0
                 
                 __GLOBAL_INI_TBL:
0000c1 0001      	.DW  0x01
0000c2 0002      	.DW  0x02
0000c3 0054      	.DW  __REG_BIT_VARS*2
                 
0000c4 000a      	.DW  0x0A
0000c5 0004      	.DW  0x04
0000c6 0056      	.DW  __REG_VARS*2
                 
0000c7 0002      	.DW  0x02
0000c8 0180      	.DW  __base_y_G100
0000c9 016e      	.DW  _0x2000003*2
                 
0000ca 0001      	.DW  0x01
0000cb 0187      	.DW  __seed_G106
0000cc 0176      	.DW  _0x20C0060*2
                 
                 _0xFFFFFFFF:
0000cd 0000      	.DW  0
                 
                 #define __GLOBAL_INI_TBL_PRESENT 1
                 
                 __RESET:
0000ce 94f8      	CLI
0000cf 27ee      	CLR  R30
0000d0 bbec      	OUT  EECR,R30
                 
                 ;INTERRUPT VECTORS ARE PLACED
                 ;AT THE START OF FLASH
0000d1 e0f1      	LDI  R31,1
0000d2 bffb      	OUT  GICR,R31
0000d3 bfeb      	OUT  GICR,R30
0000d4 bfe5      	OUT  MCUCR,R30
                 
                 ;CLEAR R2-R14
0000d5 e08d      	LDI  R24,(14-2)+1
0000d6 e0a2      	LDI  R26,2
0000d7 27bb      	CLR  R27
                 __CLEAR_REG:
0000d8 93ed      	ST   X+,R30
0000d9 958a      	DEC  R24
0000da f7e9      	BRNE __CLEAR_REG
                 
                 ;CLEAR SRAM
0000db e080      	LDI  R24,LOW(__CLEAR_SRAM_SIZE)
0000dc e094      	LDI  R25,HIGH(__CLEAR_SRAM_SIZE)
0000dd e6a0      	LDI  R26,__SRAM_START
                 __CLEAR_SRAM:
0000de 93ed      	ST   X+,R30
0000df 9701      	SBIW R24,1
0000e0 f7e9      	BRNE __CLEAR_SRAM
                 
                 ;GLOBAL VARIABLES INITIALIZATION
0000e1 e8e2      	LDI  R30,LOW(__GLOBAL_INI_TBL*2)
0000e2 e0f1      	LDI  R31,HIGH(__GLOBAL_INI_TBL*2)
                 __GLOBAL_INI_NEXT:
0000e3 9185      	LPM  R24,Z+
0000e4 9195      	LPM  R25,Z+
0000e5 9700      	SBIW R24,0
0000e6 f061      	BREQ __GLOBAL_INI_END
0000e7 91a5      	LPM  R26,Z+
0000e8 91b5      	LPM  R27,Z+
0000e9 9005      	LPM  R0,Z+
0000ea 9015      	LPM  R1,Z+
0000eb 01bf      	MOVW R22,R30
0000ec 01f0      	MOVW R30,R0
                 __GLOBAL_INI_LOOP:
0000ed 9005      	LPM  R0,Z+
0000ee 920d      	ST   X+,R0
0000ef 9701      	SBIW R24,1
0000f0 f7e1      	BRNE __GLOBAL_INI_LOOP
0000f1 01fb      	MOVW R30,R22
0000f2 cff0      	RJMP __GLOBAL_INI_NEXT
                 __GLOBAL_INI_END:
                 
                 ;HARDWARE STACK POINTER INITIALIZATION
0000f3 e5ef      	LDI  R30,LOW(__SRAM_END-__HEAP_SIZE)
0000f4 bfed      	OUT  SPL,R30
0000f5 e0e4      	LDI  R30,HIGH(__SRAM_END-__HEAP_SIZE)
0000f6 bfee      	OUT  SPH,R30
                 
                 ;DATA STACK POINTER INITIALIZATION
0000f7 e6c0      	LDI  R28,LOW(__SRAM_START+__DSTACK_SIZE)
0000f8 e0d1      	LDI  R29,HIGH(__SRAM_START+__DSTACK_SIZE)
                 
0000f9 940c 0173 	JMP  _main
                 
                 	.ESEG
                 	.ORG 0
                 
                 	.DSEG
                 	.ORG 0x160
                 
                 	.CSEG
                 ;#include <mega16a.h>
                 	#ifndef __SLEEP_DEFINED__
                 	#define __SLEEP_DEFINED__
                 	.EQU __se_bit=0x40
                 	.EQU __sm_mask=0xB0
                 	.EQU __sm_powerdown=0x20
                 	.EQU __sm_powersave=0x30
                 	.EQU __sm_standby=0xA0
                 	.EQU __sm_ext_standby=0xB0
                 	.EQU __sm_adc_noise_red=0x10
                 	.SET power_ctrl_reg=mcucr
                 	#endif
                 ;#include <delay.h>
                 ;#include <alcd.h>
                 ;#include <stdio.h>
                 ;#include <spi.h>
                 ;// ADC configuration for Molti meter
                 ;#define ADC_VREF_TYPE ((0<<REFS1) | (0<<REFS0) | (0<<ADLAR))
                 ;unsigned int read_adc(unsigned char adc_input)
                 ; 0000 0009 {
                 
                 	.CSEG
                 _read_adc:
                 ; .FSTART _read_adc
                 ; 0000 000A     ADMUX=adc_input | ADC_VREF_TYPE;
0000fb 93aa      	ST   -Y,R26
                 ;	adc_input -> Y+0
0000fc 81e8      	LD   R30,Y
0000fd b9e7      	OUT  0x7,R30
                 ; 0000 000B     delay_us(10);
                +
0000fe e18b     +LDI R24 , LOW ( 27 )
                +__DELAY_USB_LOOP :
0000ff 958a     +DEC R24
000100 f7f1     +BRNE __DELAY_USB_LOOP
                 	__DELAY_USB 27
                 ; 0000 000C     ADCSRA|=(1<<ADSC);
000101 9a36      	SBI  0x6,6
                 ; 0000 000D     while ((ADCSRA & (1<<ADIF))==0);
                 _0x3:
000102 9b34      	SBIS 0x6,4
000103 cffe      	RJMP _0x3
                 ; 0000 000E     ADCSRA|=(1<<ADIF);
000104 9a34      	SBI  0x6,4
                 ; 0000 000F     return ADCW;
000105 b1e4      	IN   R30,0x4
000106 b1f5      	IN   R31,0x4+1
000107 c05a      	RJMP _0x20E0008
                 ; 0000 0010 }
                 ; .FEND
                 ;// spi intiger
                 ;/////////////////////////////////////////////////////////////////////////////////////////////////////
                 ;int Spi_Counter = 0  , Send_Data = 0 ; // SPI counter SPI send_data
                 ;//////////////////////////////////////////////////////////////////////////////////////////////////////
                 ;#define DATA_REGISTER_EMPTY (1<<UDRE)
                 ;#define RX_COMPLETE (1<<RXC)
                 ;#define FRAMING_ERROR (1<<FE)
                 ;#define PARITY_ERROR (1<<UPE)
                 ;#define DATA_OVERRUN (1<<DOR)
                 ;
                 ;// USART Receiver buffer
                 ;#define RX_BUFFER_SIZE 16
                 ;char rx_buffer[RX_BUFFER_SIZE];
                 ;
                 ;#if RX_BUFFER_SIZE <= 256
                 ;unsigned char rx_wr_index=0,rx_rd_index=0;
                 ;#else
                 ;unsigned int rx_wr_index=0,rx_rd_index=0;
                 ;#endif
                 ;
                 ;#if RX_BUFFER_SIZE < 256
                 ;unsigned char rx_counter=0;
                 ;#else
                 ;unsigned int rx_counter=0;
                 ;#endif
                 ;
                 ;// This flag is set on USART Receiver buffer overflow
                 ;bit rx_buffer_overflow;
                 ;
                 ;// USART Receiver interrupt service routine
                 ;interrupt [USART_RXC] void usart_rx_isr(void)
                 ; 0000 0030 {
                 _usart_rx_isr:
                 ; .FSTART _usart_rx_isr
000108 940e 07da 	CALL SUBOPT_0x0
                 ; 0000 0031     char status,data;
                 ; 0000 0032     status=UCSRA;
00010a 931a      	ST   -Y,R17
00010b 930a      	ST   -Y,R16
                 ;	status -> R17
                 ;	data -> R16
00010c b11b      	IN   R17,11
                 ; 0000 0033     data=UDR;
00010d b10c      	IN   R16,12
                 ; 0000 0034     if ((status & (FRAMING_ERROR | PARITY_ERROR | DATA_OVERRUN))==0)
00010e 2fe1      	MOV  R30,R17
00010f 71ec      	ANDI R30,LOW(0x1C)
000110 f489      	BRNE _0x6
                 ; 0000 0035     {
                 ; 0000 0036         rx_buffer[rx_wr_index++]=data;
000111 2de9      	MOV  R30,R9
000112 9493      	INC  R9
000113 e0f0      	LDI  R31,0
000114 5ae0      	SUBI R30,LOW(-_rx_buffer)
000115 4ffe      	SBCI R31,HIGH(-_rx_buffer)
000116 8300      	ST   Z,R16
                 ; 0000 0037      #if RX_BUFFER_SIZE == 256
                 ; 0000 0038         // special case for receiver buffer size=256
                 ; 0000 0039         if (++rx_counter == 0) rx_buffer_overflow=1;
                 ; 0000 003A      #else
                 ; 0000 003B         if (rx_wr_index == RX_BUFFER_SIZE) rx_wr_index=0;
000117 e1e0      	LDI  R30,LOW(16)
000118 15e9      	CP   R30,R9
000119 f409      	BRNE _0x7
00011a 2499      	CLR  R9
                 ; 0000 003C         if (++rx_counter == RX_BUFFER_SIZE)
                 _0x7:
00011b 94b3      	INC  R11
00011c e1e0      	LDI  R30,LOW(16)
00011d 15eb      	CP   R30,R11
00011e f419      	BRNE _0x8
                 ; 0000 003D         {
                 ; 0000 003E             rx_counter=0;
00011f 24bb      	CLR  R11
                 ; 0000 003F             rx_buffer_overflow=1;
000120 9468      	SET
000121 f820      	BLD  R2,0
                 ; 0000 0040         }
                 ; 0000 0041      #endif
                 ; 0000 0042     }
                 _0x8:
                 ; 0000 0043 }
                 _0x6:
000122 9109      	LD   R16,Y+
000123 9119      	LD   R17,Y+
000124 c049      	RJMP _0x29
                 ; .FEND
                 ;
                 ;#ifndef _DEBUG_TERMINAL_IO_
                 ;// Get a character from the USART Receiver buffer
                 ;#define _ALTERNATE_GETCHAR_
                 ;#pragma used+
                 ;char getchar(void)
                 ; 0000 004A {
                 _getchar:
                 ; .FSTART _getchar
                 ; 0000 004B     char data;
                 ; 0000 004C     while (rx_counter==0);
000125 931a      	ST   -Y,R17
                 ;	data -> R17
                 _0x9:
000126 20bb      	TST  R11
000127 f3f1      	BREQ _0x9
                 ; 0000 004D     data=rx_buffer[rx_rd_index++];
000128 2de8      	MOV  R30,R8
000129 9483      	INC  R8
00012a e0f0      	LDI  R31,0
00012b 5ae0      	SUBI R30,LOW(-_rx_buffer)
00012c 4ffe      	SBCI R31,HIGH(-_rx_buffer)
00012d 8110      	LD   R17,Z
                 ; 0000 004E     #if RX_BUFFER_SIZE != 256
                 ; 0000 004F     if (rx_rd_index == RX_BUFFER_SIZE) rx_rd_index=0;
00012e e1e0      	LDI  R30,LOW(16)
00012f 15e8      	CP   R30,R8
000130 f409      	BRNE _0xC
000131 2488      	CLR  R8
                 ; 0000 0050     #endif
                 ; 0000 0051     #asm("cli")
                 _0xC:
000132 94f8      	cli
                 ; 0000 0052     --rx_counter;
000133 94ba      	DEC  R11
                 ; 0000 0053     #asm("sei")
000134 9478      	sei
                 ; 0000 0054     return data;
000135 2fe1      	MOV  R30,R17
000136 9119      	LD   R17,Y+
000137 9508      	RET
                 ; 0000 0055 }
                 ; .FEND
                 ;#pragma used-
                 ;#endif
                 ;
                 ;// USART Transmitter buffer
                 ;#define TX_BUFFER_SIZE 16
                 ;char tx_buffer[TX_BUFFER_SIZE];
                 ;
                 ;#if TX_BUFFER_SIZE <= 256
                 ;unsigned char tx_wr_index=0,tx_rd_index=0;
                 ;#else
                 ;unsigned int tx_wr_index=0,tx_rd_index=0;
                 ;#endif
                 ;
                 ;#if TX_BUFFER_SIZE < 256
                 ;unsigned char tx_counter=0;
                 ;#else
                 ;unsigned int tx_counter=0;
                 ;#endif
                 ;
                 ;// USART Transmitter interrupt service routine
                 ;interrupt [USART_TXC] void usart_tx_isr(void)
                 ; 0000 006B {
                 _usart_tx_isr:
                 ; .FSTART _usart_tx_isr
000138 940e 07da 	CALL SUBOPT_0x0
                 ; 0000 006C     if (tx_counter)
00013a 20cc      	TST  R12
00013b f061      	BREQ _0xD
                 ; 0000 006D     {
                 ; 0000 006E          --tx_counter;
00013c 94ca      	DEC  R12
                 ; 0000 006F          UDR=tx_buffer[tx_rd_index++];
00013d 2ded      	MOV  R30,R13
00013e 94d3      	INC  R13
00013f e0f0      	LDI  R31,0
000140 59e0      	SUBI R30,LOW(-_tx_buffer)
000141 4ffe      	SBCI R31,HIGH(-_tx_buffer)
000142 81e0      	LD   R30,Z
000143 b9ec      	OUT  0xC,R30
                 ; 0000 0070      #if TX_BUFFER_SIZE != 256
                 ; 0000 0071          if (tx_rd_index == TX_BUFFER_SIZE) tx_rd_index=0;
000144 e1e0      	LDI  R30,LOW(16)
000145 15ed      	CP   R30,R13
000146 f409      	BRNE _0xE
000147 24dd      	CLR  R13
                 ; 0000 0072      #endif
                 ; 0000 0073     }
                 _0xE:
                 ; 0000 0074 }
                 _0xD:
000148 c025      	RJMP _0x29
                 ; .FEND
                 ;
                 ;#ifndef _DEBUG_TERMINAL_IO_
                 ;// Write a character to the USART Transmitter buffer
                 ;#define _ALTERNATE_PUTCHAR_
                 ;#pragma used+
                 ;void putchar(char c)
                 ; 0000 007B {
                 _putchar:
                 ; .FSTART _putchar
                 ; 0000 007C     while (tx_counter == TX_BUFFER_SIZE);
000149 93aa      	ST   -Y,R26
                 ;	c -> Y+0
                 _0xF:
00014a e1e0      	LDI  R30,LOW(16)
00014b 15ec      	CP   R30,R12
00014c f3e9      	BREQ _0xF
                 ; 0000 007D     #asm("cli")
00014d 94f8      	cli
                 ; 0000 007E     if (tx_counter || ((UCSRA & DATA_REGISTER_EMPTY)==0))
00014e 20cc      	TST  R12
00014f f411      	BRNE _0x13
000150 995d      	SBIC 0xB,5
000151 c00d      	RJMP _0x12
                 _0x13:
                 ; 0000 007F        {
                 ; 0000 0080             tx_buffer[tx_wr_index++]=c;
000152 2dea      	MOV  R30,R10
000153 94a3      	INC  R10
000154 e0f0      	LDI  R31,0
000155 59e0      	SUBI R30,LOW(-_tx_buffer)
000156 4ffe      	SBCI R31,HIGH(-_tx_buffer)
000157 81a8      	LD   R26,Y
000158 83a0      	STD  Z+0,R26
                 ; 0000 0081          #if TX_BUFFER_SIZE != 256
                 ; 0000 0082             if (tx_wr_index == TX_BUFFER_SIZE) tx_wr_index=0;
000159 e1e0      	LDI  R30,LOW(16)
00015a 15ea      	CP   R30,R10
00015b f409      	BRNE _0x15
00015c 24aa      	CLR  R10
                 ; 0000 0083          #endif
                 ; 0000 0084          ++tx_counter;
                 _0x15:
00015d 94c3      	INC  R12
                 ; 0000 0085        }
                 ; 0000 0086     else
00015e c002      	RJMP _0x16
                 _0x12:
                 ; 0000 0087        UDR=c;
00015f 81e8      	LD   R30,Y
000160 b9ec      	OUT  0xC,R30
                 ; 0000 0088     #asm("sei")
                 _0x16:
000161 9478      	sei
                 ; 0000 0089 }
                 _0x20E0008:
000162 9621      	ADIW R28,1
000163 9508      	RET
                 ; .FEND
                 ;#pragma used-
                 ;#endif
                 ;/////////////////////////////////////////////////////////////////////////////////////////////////////////////
                 ;// External Interrupt 0 service routine
                 ;interrupt [EXT_INT0] void ext_int0_isr(void) // key 1 for interrupt 0 service routine
                 ; 0000 008F {
                 _ext_int0_isr:
                 ; .FSTART _ext_int0_isr
000164 940e 07da 	CALL SUBOPT_0x0
                 ; 0000 0090 
                 ; 0000 0091     Spi_Counter++;  // spi counter ++ = ++ resistor value
000166 01f2      	MOVW R30,R4
000167 9631      	ADIW R30,1
000168 c004      	RJMP _0x28
                 ; 0000 0092 
                 ; 0000 0093 }
                 ; .FEND
                 ;
                 ;// External Interrupt 1 service routine
                 ;interrupt [EXT_INT1] void ext_int1_isr(void)   // key 2 for interrupt 1 service routine
                 ; 0000 0097 {
                 _ext_int1_isr:
                 ; .FSTART _ext_int1_isr
000169 940e 07da 	CALL SUBOPT_0x0
                 ; 0000 0098 
                 ; 0000 0099     Spi_Counter--; // spi counter -- = -- resistor value
00016b 01f2      	MOVW R30,R4
00016c 9731      	SBIW R30,1
                 _0x28:
00016d 012f      	MOVW R4,R30
                 ; 0000 009A 
                 ; 0000 009B }
                 _0x29:
00016e 91e9      	LD   R30,Y+
00016f bfef      	OUT  SREG,R30
000170 91f9      	LD   R31,Y+
000171 91e9      	LD   R30,Y+
000172 9518      	RETI
                 ; .FEND
                 ;////////////////////////////////////////////////////////////////////////////////////////////////////////////
                 ;// main function
                 ;void main(void)
                 ; 0000 009F {
                 _main:
                 ; .FSTART _main
                 ; 0000 00A0 
                 ; 0000 00A1     float MoltiTemp , Volt , Voltage ; // Molti meter
                 ; 0000 00A2     unsigned char LCD[16]; // LCD data
                 ; 0000 00A3     // USART intiger
                 ; 0000 00A4     unsigned char Get_Data=0 ;
                 ; 0000 00A5     // PORT configuration
                 ; 0000 00A6     // PORTA = ENABLE ADC
                 ; 0000 00A7     DDRA=(0<<DDA7) | (0<<DDA6) | (0<<DDA5) | (0<<DDA4) | (0<<DDA3) | (0<<DDA2) | (0<<DDA1) | (0<<DDA0);
000173 976c      	SBIW R28,28
                 ;	MoltiTemp -> Y+24
                 ;	Volt -> Y+20
                 ;	Voltage -> Y+16
                 ;	LCD -> Y+0
                 ;	Get_Data -> R17
000174 e010      	LDI  R17,0
000175 e0e0      	LDI  R30,LOW(0)
000176 bbea      	OUT  0x1A,R30
                 ; 0000 00A8     PORTA=(0<<PORTA7) | (0<<PORTA6) | (0<<PORTA5) | (0<<PORTA4) | (0<<PORTA3) | (0<<PORTA2) | (0<<PORTA1) | (0<<PORTA0);
000177 bbeb      	OUT  0x1B,R30
                 ; 0000 00A9     // PORTA = ENABLE ADC END
                 ; 0000 00AA     // PORTB = ISP MCP4131
                 ; 0000 00AB     DDRB=(1<<DDB7) | (0<<DDB6) | (1<<DDB5) | (1<<DDB4) | (0<<DDB3) | (0<<DDB2) | (0<<DDB1) | (0<<DDB0);
000178 ebe0      	LDI  R30,LOW(176)
000179 bbe7      	OUT  0x17,R30
                 ; 0000 00AC     PORTB=(0<<PORTB7) | (0<<PORTB6) | (0<<PORTB5) | (0<<PORTB4) | (0<<PORTB3) | (0<<PORTB2) | (0<<PORTB1) | (0<<PORTB0);
00017a e0e0      	LDI  R30,LOW(0)
00017b bbe8      	OUT  0x18,R30
                 ; 0000 00AD     // PORTB = ISP MCP4131 END
                 ; 0000 00AE     // PORTC = LCD
                 ; 0000 00AF     DDRC=(1<<DDC7) | (1<<DDC6) | (1<<DDC5) | (1<<DDC4) | (1<<DDC3) | (1<<DDC2) | (1<<DDC1) | (1<<DDC0);
00017c efef      	LDI  R30,LOW(255)
00017d bbe4      	OUT  0x14,R30
                 ; 0000 00B0     PORTC=(0<<PORTC7) | (0<<PORTC6) | (0<<PORTC5) | (0<<PORTC4) | (0<<PORTC3) | (0<<PORTC2) | (0<<PORTC1) | (0<<PORTC0);
00017e e0e0      	LDI  R30,LOW(0)
00017f bbe5      	OUT  0x15,R30
                 ; 0000 00B1     // PORTC = LCD END
                 ; 0000 00B2     // PORTD
                 ; 0000 00B3     DDRD=(0<<DDD7) | (0<<DDD6) | (0<<DDD5) | (0<<DDD4) | (0<<DDD3) | (0<<DDD2) | (0<<DDD1) | (0<<DDD0);
000180 bbe1      	OUT  0x11,R30
                 ; 0000 00B4     PORTD=(0<<PORTD7) | (0<<PORTD6) | (0<<PORTD5) | (0<<PORTD4) | (0<<PORTD3) | (0<<PORTD2) | (0<<PORTD1) | (0<<PORTD0);
000181 bbe2      	OUT  0x12,R30
                 ; 0000 00B5     // PORTD END
                 ; 0000 00B6     // PORT configurationS ENDS
                 ; 0000 00B7     // ADC configuration for Molti meter
                 ; 0000 00B8     ADMUX=ADC_VREF_TYPE;
000182 b9e7      	OUT  0x7,R30
                 ; 0000 00B9     ADCSRA=(1<<ADEN) | (0<<ADSC) | (0<<ADATE) | (0<<ADIF) | (0<<ADIE) | (1<<ADPS2) | (0<<ADPS1) | (1<<ADPS0);
000183 e8e5      	LDI  R30,LOW(133)
000184 b9e6      	OUT  0x6,R30
                 ; 0000 00BA     SFIOR=(0<<ADTS2) | (0<<ADTS1) | (0<<ADTS0);
000185 e0e0      	LDI  R30,LOW(0)
000186 bfe0      	OUT  0x30,R30
                 ; 0000 00BB     // ADC configuration for Molti meter END
                 ; 0000 00BC     //SPI configurationS
                 ; 0000 00BD     SPCR=(0<<SPIE) | (1<<SPE) | (0<<DORD) | (1<<MSTR) | (0<<CPOL) | (0<<CPHA) | (0<<SPR1) | (0<<SPR0);
000187 e5e0      	LDI  R30,LOW(80)
000188 b9ed      	OUT  0xD,R30
                 ; 0000 00BE     SPSR=(0<<SPI2X);
000189 e0e0      	LDI  R30,LOW(0)
00018a b9ee      	OUT  0xE,R30
                 ; 0000 00BF     // External Interrupt(s) initialization
                 ; 0000 00C0     // INT0: On
                 ; 0000 00C1     // INT0 Mode: Falling Edge
                 ; 0000 00C2     // INT1: On
                 ; 0000 00C3     // INT1 Mode: Falling Edge
                 ; 0000 00C4     // INT2: Off
                 ; 0000 00C5     GICR|=(1<<INT1) | (1<<INT0) | (0<<INT2);
00018b b7eb      	IN   R30,0x3B
00018c 6ce0      	ORI  R30,LOW(0xC0)
00018d bfeb      	OUT  0x3B,R30
                 ; 0000 00C6     MCUCR=(1<<ISC11) | (0<<ISC10) | (1<<ISC01) | (0<<ISC00);
00018e e0ea      	LDI  R30,LOW(10)
00018f bfe5      	OUT  0x35,R30
                 ; 0000 00C7     MCUCSR=(0<<ISC2);
000190 e0e0      	LDI  R30,LOW(0)
000191 bfe4      	OUT  0x34,R30
                 ; 0000 00C8     GIFR=(1<<INTF1) | (1<<INTF0) | (0<<INTF2);
000192 ece0      	LDI  R30,LOW(192)
000193 bfea      	OUT  0x3A,R30
                 ; 0000 00C9     // USART initialization
                 ; 0000 00CA     // Communication Parameters: 8 Data, 1 Stop, No Parity
                 ; 0000 00CB     // USART Receiver: On
                 ; 0000 00CC     // USART Transmitter: On
                 ; 0000 00CD     // USART Baud Rate: 1200
                 ; 0000 00CE     UCSRA=(0<<RXC) | (0<<TXC) | (0<<UDRE) | (0<<FE) | (0<<DOR) | (0<<UPE) | (0<<U2X) | (0<<MPCM);
000194 e0e0      	LDI  R30,LOW(0)
000195 b9eb      	OUT  0xB,R30
                 ; 0000 00CF     UCSRB=(1<<RXCIE) | (1<<TXCIE) | (0<<UDRIE) | (1<<RXEN) | (1<<TXEN) | (0<<UCSZ2) | (0<<RXB8) | (0<<TXB8);
000196 ede8      	LDI  R30,LOW(216)
000197 b9ea      	OUT  0xA,R30
                 ; 0000 00D0     UCSRC=(1<<URSEL) | (0<<UMSEL) | (0<<UPM1) | (0<<UPM0) | (0<<USBS) | (1<<UCSZ1) | (1<<UCSZ0) | (0<<UCPOL);
000198 e8e6      	LDI  R30,LOW(134)
000199 bde0      	OUT  0x20,R30
                 ; 0000 00D1     UBRRH=0x01;
00019a e0e1      	LDI  R30,LOW(1)
00019b bde0      	OUT  0x20,R30
                 ; 0000 00D2     UBRRL=0xA0;
00019c eae0      	LDI  R30,LOW(160)
00019d b9e9      	OUT  0x9,R30
                 ; 0000 00D3 
                 ; 0000 00D4 
                 ; 0000 00D5     // usart end
                 ; 0000 00D6     lcd_init(16);
00019e e1a0      	LDI  R26,LOW(16)
00019f d16c      	RCALL _lcd_init
                 ; 0000 00D7     // Loading
                 ; 0000 00D8     lcd_gotoxy(3,0);
0001a0 e0e3      	LDI  R30,LOW(3)
0001a1 940e 07df 	CALL SUBOPT_0x1
                 ; 0000 00D9     lcd_putsf("Loading... ");
                +
0001a3 e6a0     +LDI R26 , LOW ( 2 * _0x0 + ( 0 ) )
0001a4 e0b0     +LDI R27 , HIGH ( 2 * _0x0 + ( 0 ) )
                 	__POINTW2FN _0x0,0
0001a5 d154      	RCALL _lcd_putsf
                 ; 0000 00DA     printf("Loading... \r\n");
                +
0001a6 e6ec     +LDI R30 , LOW ( 2 * _0x0 + ( 12 ) )
0001a7 e0f0     +LDI R31 , HIGH ( 2 * _0x0 + ( 12 ) )
                 	__POINTW1FN _0x0,12
0001a8 940e 07e3 	CALL SUBOPT_0x2
                 ; 0000 00DB     lcd_gotoxy(0,1);
0001aa e0e0      	LDI  R30,LOW(0)
0001ab 940e 07ea 	CALL SUBOPT_0x3
                 ; 0000 00DC     lcd_putsf("#");
0001ad 940e 07ee 	CALL SUBOPT_0x4
                 ; 0000 00DD     delay_ms(500);
                 ; 0000 00DE     lcd_putsf("#");
0001af 940e 07ee 	CALL SUBOPT_0x4
                 ; 0000 00DF     delay_ms(500);
                 ; 0000 00E0     lcd_putsf("#");
0001b1 940e 07ee 	CALL SUBOPT_0x4
                 ; 0000 00E1     delay_ms(500);
                 ; 0000 00E2     lcd_putsf("#");
0001b3 940e 07ee 	CALL SUBOPT_0x4
                 ; 0000 00E3     delay_ms(500);
                 ; 0000 00E4     lcd_putsf("#");
0001b5 940e 07f6 	CALL SUBOPT_0x5
                 ; 0000 00E5     delay_ms(100);
                 ; 0000 00E6     lcd_putsf("#");
0001b7 940e 07f6 	CALL SUBOPT_0x5
                 ; 0000 00E7     delay_ms(100);
                 ; 0000 00E8     lcd_putsf("#");
0001b9 940e 07f6 	CALL SUBOPT_0x5
                 ; 0000 00E9     delay_ms(100);
                 ; 0000 00EA     lcd_putsf("#");
0001bb 940e 07f6 	CALL SUBOPT_0x5
                 ; 0000 00EB     delay_ms(100);
                 ; 0000 00EC     lcd_putsf("#");
0001bd 940e 07f6 	CALL SUBOPT_0x5
                 ; 0000 00ED     delay_ms(100);
                 ; 0000 00EE     lcd_putsf("#");
0001bf 940e 07f6 	CALL SUBOPT_0x5
                 ; 0000 00EF     delay_ms(100);
                 ; 0000 00F0     lcd_putsf("#");
0001c1 940e 07f6 	CALL SUBOPT_0x5
                 ; 0000 00F1     delay_ms(100);
                 ; 0000 00F2     lcd_putsf("#");
0001c3 940e 07f6 	CALL SUBOPT_0x5
                 ; 0000 00F3     delay_ms(100);
                 ; 0000 00F4     lcd_putsf("#");
0001c5 940e 07f6 	CALL SUBOPT_0x5
                 ; 0000 00F5     delay_ms(100);
                 ; 0000 00F6     lcd_putsf("#");
0001c7 940e 07fe 	CALL SUBOPT_0x6
                 ; 0000 00F7     delay_ms(10);
0001c9 e0aa      	LDI  R26,LOW(10)
0001ca e0b0      	LDI  R27,0
0001cb 940e 0908 	CALL _delay_ms
                 ; 0000 00F8     lcd_putsf("#");
0001cd 940e 07fe 	CALL SUBOPT_0x6
                 ; 0000 00F9     delay_ms(50);
0001cf e3a2      	LDI  R26,LOW(50)
0001d0 e0b0      	LDI  R27,0
0001d1 940e 0908 	CALL _delay_ms
                 ; 0000 00FA     lcd_putsf("#");
0001d3 940e 07fe 	CALL SUBOPT_0x6
                 ; 0000 00FB     delay_ms(50);
0001d5 e3a2      	LDI  R26,LOW(50)
0001d6 e0b0      	LDI  R27,0
0001d7 940e 0908 	CALL _delay_ms
                 ; 0000 00FC     lcd_clear();
0001d9 d0e0      	RCALL _lcd_clear
                 ; 0000 00FD 
                 ; 0000 00FE 
                 ; 0000 00FF     while (1)   // while 1
                 _0x17:
                 ; 0000 0100     {
                 ; 0000 0101 
                 ; 0000 0102         Loop:
                 _0x1A:
                 ; 0000 0103                     // SPI
                 ; 0000 0104 
                 ; 0000 0105             spi(0);                // send zero byte to SPI for MCP4131
0001da e0a0      	LDI  R26,LOW(0)
0001db 940e 06c3 	CALL _spi
                 ; 0000 0106             Send_Data = Spi_Counter;    // send Data = spi counter
0001dd 0132      	MOVW R6,R4
                 ; 0000 0107             spi(Send_Data);       // send a data packet  for MCP4131
0001de 2da6      	MOV  R26,R6
0001df 940e 06c3 	CALL _spi
                 ; 0000 0108 
                 ; 0000 0109                     // end SPI
                 ; 0000 010A                     // Molti meter
                 ; 0000 010B 
                 ; 0000 010C             MoltiTemp=read_adc(0);      // read_adc from PINA.0 && Pour MoltiTemp integer value
0001e1 e0a0      	LDI  R26,LOW(0)
0001e2 df18      	RCALL _read_adc
0001e3 2766      	CLR  R22
0001e4 2777      	CLR  R23
0001e5 940e 097e 	CALL __CDF1
                +
0001e7 8fe8     +STD Y + 24 , R30
0001e8 8ff9     +STD Y + 24 + 1 , R31
0001e9 8f6a     +STD Y + 24 + 2 , R22
0001ea 8f7b     +STD Y + 24 + 3 , R23
                 	__PUTD1S 24
                 ; 0000 010D             Volt=(MoltiTemp*5)/1023 ;   // ( MoltiTemp x 5 )  5 && Pour Volt integer value
                +
0001eb 8da8     +LDD R26 , Y + 24
0001ec 8db9     +LDD R27 , Y + 24 + 1
0001ed 8d8a     +LDD R24 , Y + 24 + 2
0001ee 8d9b     +LDD R25 , Y + 24 + 3
                 	__GETD2S 24
                +
0001ef e0e0     +LDI R30 , LOW ( 0x40A00000 )
0001f0 e0f0     +LDI R31 , HIGH ( 0x40A00000 )
0001f1 ea60     +LDI R22 , BYTE3 ( 0x40A00000 )
0001f2 e470     +LDI R23 , BYTE4 ( 0x40A00000 )
                 	__GETD1N 0x40A00000
0001f3 940e 0a08 	CALL __MULF12
0001f5 01df      	MOVW R26,R30
0001f6 01cb      	MOVW R24,R22
                +
0001f7 e0e0     +LDI R30 , LOW ( 0x447FC000 )
0001f8 ecf0     +LDI R31 , HIGH ( 0x447FC000 )
0001f9 e76f     +LDI R22 , BYTE3 ( 0x447FC000 )
0001fa e474     +LDI R23 , BYTE4 ( 0x447FC000 )
                 	__GETD1N 0x447FC000
0001fb 940e 0a56 	CALL __DIVF21
                +
0001fd 8bec     +STD Y + 20 , R30
0001fe 8bfd     +STD Y + 20 + 1 , R31
0001ff 8b6e     +STD Y + 20 + 2 , R22
000200 8b7f     +STD Y + 20 + 3 , R23
                 	__PUTD1S 20
                 ; 0000 010E             Voltage=(Volt*10)+Volt ;    // ( Volt x 10 ) + Voltage && Pour Volt integer value
                +
000201 89ac     +LDD R26 , Y + 20
000202 89bd     +LDD R27 , Y + 20 + 1
000203 898e     +LDD R24 , Y + 20 + 2
000204 899f     +LDD R25 , Y + 20 + 3
                 	__GETD2S 20
000205 940e 0802 	CALL SUBOPT_0x7
                +
000207 89ac     +LDD R26 , Y + 20
000208 89bd     +LDD R27 , Y + 20 + 1
000209 898e     +LDD R24 , Y + 20 + 2
00020a 899f     +LDD R25 , Y + 20 + 3
                 	__GETD2S 20
00020b 940e 09b8 	CALL __ADDF12
00020d 940e 0809 	CALL SUBOPT_0x8
                 ; 0000 010F             sprintf(LCD,"Voltage = %2.2f ",Voltage); // Voltage integer conversion field LCD string
00020f 01fe      	MOVW R30,R28
000210 93fa      	ST   -Y,R31
000211 93ea      	ST   -Y,R30
                +
000212 e7ec     +LDI R30 , LOW ( 2 * _0x0 + ( 28 ) )
000213 e0f0     +LDI R31 , HIGH ( 2 * _0x0 + ( 28 ) )
                 	__POINTW1FN _0x0,28
000214 93fa      	ST   -Y,R31
000215 93ea      	ST   -Y,R30
                +
000216 89ec     +LDD R30 , Y + 20
000217 89fd     +LDD R31 , Y + 20 + 1
000218 896e     +LDD R22 , Y + 20 + 2
000219 897f     +LDD R23 , Y + 20 + 3
                 	__GETD1S 20
00021a 940e 0b3f 	CALL __PUTPARD1
00021c e084      	LDI  R24,4
00021d 940e 0676 	CALL _sprintf
00021f 9628      	ADIW R28,8
                 ; 0000 0110 
                 ; 0000 0111                     // end Molti meter
                 ; 0000 0112                     // LCD
                 ; 0000 0113 
                 ; 0000 0114             lcd_gotoxy(0,0);    // ################
000220 e0e0      	LDI  R30,LOW(0)
000221 940e 07df 	CALL SUBOPT_0x1
                 ; 0000 0115             lcd_puts(LCD);      // show LCD string
000223 01de      	MOVW R26,R28
000224 d0c5      	RCALL _lcd_puts
                 ; 0000 0116             lcd_gotoxy(15,0);   // ############V###
000225 e0ef      	LDI  R30,LOW(15)
000226 940e 07df 	CALL SUBOPT_0x1
                 ; 0000 0117             lcd_putsf("V");     // show V
                +
000228 e8ad     +LDI R26 , LOW ( 2 * _0x0 + ( 45 ) )
000229 e0b0     +LDI R27 , HIGH ( 2 * _0x0 + ( 45 ) )
                 	__POINTW2FN _0x0,45
00022a d0cf      	RCALL _lcd_putsf
                 ; 0000 0118             delay_ms(500);      // delay for next frame
00022b efa4      	LDI  R26,LOW(500)
00022c e0b1      	LDI  R27,HIGH(500)
00022d 940e 0908 	CALL _delay_ms
                 ; 0000 0119 
                 ; 0000 011A                     // end LCD
                 ; 0000 011B                     // USART
                 ; 0000 011C 
                 ; 0000 011D             printf("Voltage = %2.20f v\r\n" , Voltage);  // Voltage integer conversion string show USART protocol
                +
00022f e8ef     +LDI R30 , LOW ( 2 * _0x0 + ( 47 ) )
000230 e0f0     +LDI R31 , HIGH ( 2 * _0x0 + ( 47 ) )
                 	__POINTW1FN _0x0,47
000231 93fa      	ST   -Y,R31
000232 93ea      	ST   -Y,R30
                +
000233 89ea     +LDD R30 , Y + 18
000234 89fb     +LDD R31 , Y + 18 + 1
000235 896c     +LDD R22 , Y + 18 + 2
000236 897d     +LDD R23 , Y + 18 + 3
                 	__GETD1S 18
000237 940e 0b3f 	CALL __PUTPARD1
000239 e084      	LDI  R24,4
00023a 940e 06a4 	CALL _printf
00023c 9626      	ADIW R28,6
                 ; 0000 011E             if (rx_counter == 0) { printf("\r\nGet @ Voltage:~$  "); }  // prompt for new Voltage value
00023d 20bb      	TST  R11
00023e f421      	BRNE _0x1B
                +
00023f eae4     +LDI R30 , LOW ( 2 * _0x0 + ( 68 ) )
000240 e0f0     +LDI R31 , HIGH ( 2 * _0x0 + ( 68 ) )
                 	__POINTW1FN _0x0,68
000241 940e 07e3 	CALL SUBOPT_0x2
                 ; 0000 011F             if (PIND.4==1)  // USART mode switch On or OFF
                 _0x1B:
000243 9b84      	SBIS 0x10,4
000244 c038      	RJMP _0x1C
                 ; 0000 0120             {
                 ; 0000 0121                 lcd_gotoxy(3,1);
000245 e0e3      	LDI  R30,LOW(3)
000246 940e 07ea 	CALL SUBOPT_0x3
                 ; 0000 0122                 lcd_putsf(">Usart mode<");
                +
000248 eba9     +LDI R26 , LOW ( 2 * _0x0 + ( 89 ) )
000249 e0b0     +LDI R27 , HIGH ( 2 * _0x0 + ( 89 ) )
                 	__POINTW2FN _0x0,89
00024a d0af      	RCALL _lcd_putsf
                 ; 0000 0123                 Get_Data = getchar();   // get data from USART TX - Get a character in the buffer
00024b ded9      	RCALL _getchar
00024c 2f1e      	MOV  R17,R30
                 ; 0000 0124                 switch (Get_Data)   // library version for command line interface
00024d e0f0      	LDI  R31,0
                 ; 0000 0125 	            {
                 ; 0000 0126 	            case '-':   // case (-)
00024e 32ed      	CPI  R30,LOW(0x2D)
00024f e0a0      	LDI  R26,HIGH(0x2D)
000250 07fa      	CPC  R31,R26
000251 f441      	BRNE _0x20
                 ; 0000 0127 	            	    printf("\r\nVoltage--\r\n");
                +
000252 ece6     +LDI R30 , LOW ( 2 * _0x0 + ( 102 ) )
000253 e0f0     +LDI R31 , HIGH ( 2 * _0x0 + ( 102 ) )
                 	__POINTW1FN _0x0,102
000254 940e 07e3 	CALL SUBOPT_0x2
                 ; 0000 0128                         Spi_Counter++;  // spi counter ++ = ++ resistor value
000256 01f2      	MOVW R30,R4
000257 9631      	ADIW R30,1
000258 012f      	MOVW R4,R30
                 ; 0000 0129 	                break;
000259 c022      	RJMP _0x1F
                 ; 0000 012A 	            case  '+':
                 _0x20:
00025a 32eb      	CPI  R30,LOW(0x2B)
00025b e0a0      	LDI  R26,HIGH(0x2B)
00025c 07fa      	CPC  R31,R26
00025d f441      	BRNE _0x21
                 ; 0000 012B 	            	    printf("\r\nVoltage++\r\n");
                +
00025e ede4     +LDI R30 , LOW ( 2 * _0x0 + ( 116 ) )
00025f e0f0     +LDI R31 , HIGH ( 2 * _0x0 + ( 116 ) )
                 	__POINTW1FN _0x0,116
000260 940e 07e3 	CALL SUBOPT_0x2
                 ; 0000 012C                         Spi_Counter--;  // spi counter ++ = ++ resistor value
000262 01f2      	MOVW R30,R4
000263 9731      	SBIW R30,1
000264 012f      	MOVW R4,R30
                 ; 0000 012D 	            	break;
000265 c016      	RJMP _0x1F
                 ; 0000 012E 	            case  '2':
                 _0x21:
000266 33e2      	CPI  R30,LOW(0x32)
000267 e0a0      	LDI  R26,HIGH(0x32)
000268 07fa      	CPC  R31,R26
000269 f419      	BRNE _0x22
                 ; 0000 012F 	            	    printf("\r\n         [ help | GROUP | VIEW | START | B.0=1]\r\n " );
                +
00026a eee2     +LDI R30 , LOW ( 2 * _0x0 + ( 130 ) )
00026b e0f0     +LDI R31 , HIGH ( 2 * _0x0 + ( 130 ) )
                 	__POINTW1FN _0x0,130
00026c c009      	RJMP _0x27
                 ; 0000 0130 	            	break;
                 ; 0000 0131 	            case  '1':
                 _0x22:
00026d 33e1      	CPI  R30,LOW(0x31)
00026e e0a0      	LDI  R26,HIGH(0x31)
00026f 07fa      	CPC  R31,R26
000270 f419      	BRNE _0x24
                 ; 0000 0132 	            	    printf("\r\n         [ help | GROUP | VIEW | START | A.0=1]\r\n ");
                +
000271 e1e7     +LDI R30 , LOW ( 2 * _0x0 + ( 183 ) )
000272 e0f1     +LDI R31 , HIGH ( 2 * _0x0 + ( 183 ) )
                 	__POINTW1FN _0x0,183
000273 c002      	RJMP _0x27
                 ; 0000 0133 	            	break;
                 ; 0000 0134                 default:
                 _0x24:
                 ; 0000 0135 	            	    printf("\r\ncommand not fuond\r\n");
                +
000274 e4ec     +LDI R30 , LOW ( 2 * _0x0 + ( 236 ) )
000275 e0f1     +LDI R31 , HIGH ( 2 * _0x0 + ( 236 ) )
                 	__POINTW1FN _0x0,236
                 _0x27:
000276 93fa      	ST   -Y,R31
000277 93ea      	ST   -Y,R30
000278 e080      	LDI  R24,0
000279 940e 06a4 	CALL _printf
00027b 9622      	ADIW R28,2
                 ; 0000 0136 	                break;
                 ; 0000 0137                 } // end switch
                 _0x1F:
                 ; 0000 0138 
                 ; 0000 0139             } // end if
                 ; 0000 013A             else
00027c c008      	RJMP _0x25
                 _0x1C:
                 ; 0000 013B             {
                 ; 0000 013C                 lcd_clear();
00027d d03c      	RCALL _lcd_clear
                 ; 0000 013D                 lcd_gotoxy(3,1);
00027e e0e3      	LDI  R30,LOW(3)
00027f 940e 07ea 	CALL SUBOPT_0x3
                 ; 0000 013E                 lcd_putsf(">key mode<");
                +
000281 e6a2     +LDI R26 , LOW ( 2 * _0x0 + ( 258 ) )
000282 e0b1     +LDI R27 , HIGH ( 2 * _0x0 + ( 258 ) )
                 	__POINTW2FN _0x0,258
000283 d076      	RCALL _lcd_putsf
                 ; 0000 013F                 goto Loop;
000284 cf55      	RJMP _0x1A
                 ; 0000 0140 
                 ; 0000 0141             }  // Loop While(1) first command
                 _0x25:
                 ; 0000 0142 
                 ; 0000 0143                 // end USART
                 ; 0000 0144     } // end While (1)
000285 cf54      	RJMP _0x17
                 ; 0000 0145 
                 ; 0000 0146 } // end void main(void)
                 _0x26:
000286 cfff      	RJMP _0x26
                 ; .FEND
                 	#ifndef __SLEEP_DEFINED__
                 	#endif
                 
                 	.DSEG
                 
                 	.CSEG
                 __lcd_write_nibble_G100:
                 ; .FSTART __lcd_write_nibble_G100
000287 93aa      	ST   -Y,R26
000288 b3e5      	IN   R30,0x15
000289 70ef      	ANDI R30,LOW(0xF)
00028a 2fae      	MOV  R26,R30
00028b 81e8      	LD   R30,Y
00028c 7fe0      	ANDI R30,LOW(0xF0)
00028d 2bea      	OR   R30,R26
00028e bbe5      	OUT  0x15,R30
                +
00028f e08d     +LDI R24 , LOW ( 13 )
                +__DELAY_USB_LOOP :
000290 958a     +DEC R24
000291 f7f1     +BRNE __DELAY_USB_LOOP
                 	__DELAY_USB 13
000292 9aaa      	SBI  0x15,2
                +
000293 e08d     +LDI R24 , LOW ( 13 )
                +__DELAY_USB_LOOP :
000294 958a     +DEC R24
000295 f7f1     +BRNE __DELAY_USB_LOOP
                 	__DELAY_USB 13
000296 98aa      	CBI  0x15,2
                +
000297 e08d     +LDI R24 , LOW ( 13 )
                +__DELAY_USB_LOOP :
000298 958a     +DEC R24
000299 f7f1     +BRNE __DELAY_USB_LOOP
                 	__DELAY_USB 13
00029a 940c 06c9 	JMP  _0x20E0004
                 ; .FEND
                 __lcd_write_data:
                 ; .FSTART __lcd_write_data
00029c 93aa      	ST   -Y,R26
00029d 81a8      	LD   R26,Y
00029e dfe8      	RCALL __lcd_write_nibble_G100
00029f 81e8          ld    r30,y
0002a0 95e2          swap  r30
0002a1 83e8          st    y,r30
0002a2 81a8      	LD   R26,Y
0002a3 dfe3      	RCALL __lcd_write_nibble_G100
                +
0002a4 e885     +LDI R24 , LOW ( 133 )
                +__DELAY_USB_LOOP :
0002a5 958a     +DEC R24
0002a6 f7f1     +BRNE __DELAY_USB_LOOP
                 	__DELAY_USB 133
0002a7 940c 06c9 	JMP  _0x20E0004
                 ; .FEND
                 _lcd_gotoxy:
                 ; .FSTART _lcd_gotoxy
0002a9 93aa      	ST   -Y,R26
0002aa 81e8      	LD   R30,Y
0002ab e0f0      	LDI  R31,0
0002ac 58e0      	SUBI R30,LOW(-__base_y_G100)
0002ad 4ffe      	SBCI R31,HIGH(-__base_y_G100)
0002ae 81e0      	LD   R30,Z
0002af 81a9      	LDD  R26,Y+1
0002b0 0fae      	ADD  R26,R30
0002b1 dfea      	RCALL __lcd_write_data
0002b2 81e9      	LDD  R30,Y+1
0002b3 93e0 0184 	STS  __lcd_x,R30
0002b5 81e8      	LD   R30,Y
0002b6 93e0 0185 	STS  __lcd_y,R30
0002b8 9622      	ADIW R28,2
0002b9 9508      	RET
                 ; .FEND
                 _lcd_clear:
                 ; .FSTART _lcd_clear
0002ba e0a2      	LDI  R26,LOW(2)
0002bb 940e 080e 	CALL SUBOPT_0x9
0002bd e0ac      	LDI  R26,LOW(12)
0002be dfdd      	RCALL __lcd_write_data
0002bf e0a1      	LDI  R26,LOW(1)
0002c0 940e 080e 	CALL SUBOPT_0x9
0002c2 e0e0      	LDI  R30,LOW(0)
0002c3 93e0 0185 	STS  __lcd_y,R30
0002c5 93e0 0184 	STS  __lcd_x,R30
0002c7 9508      	RET
                 ; .FEND
                 _lcd_putchar:
                 ; .FSTART _lcd_putchar
0002c8 93aa      	ST   -Y,R26
0002c9 81a8      	LD   R26,Y
0002ca 30aa      	CPI  R26,LOW(0xA)
0002cb f031      	BREQ _0x2000005
0002cc 91e0 0186 	LDS  R30,__lcd_maxx
0002ce 91a0 0184 	LDS  R26,__lcd_x
0002d0 17ae      	CP   R26,R30
0002d1 f068      	BRLO _0x2000004
                 _0x2000005:
0002d2 e0e0      	LDI  R30,LOW(0)
0002d3 93ea      	ST   -Y,R30
0002d4 91a0 0185 	LDS  R26,__lcd_y
0002d6 5faf      	SUBI R26,-LOW(1)
0002d7 93a0 0185 	STS  __lcd_y,R26
0002d9 dfcf      	RCALL _lcd_gotoxy
0002da 81a8      	LD   R26,Y
0002db 30aa      	CPI  R26,LOW(0xA)
0002dc f411      	BRNE _0x2000007
0002dd 940c 06c9 	JMP  _0x20E0004
                 _0x2000007:
                 _0x2000004:
0002df 91e0 0184 	LDS  R30,__lcd_x
0002e1 5fef      	SUBI R30,-LOW(1)
0002e2 93e0 0184 	STS  __lcd_x,R30
0002e4 9aa8      	SBI  0x15,0
0002e5 81a8      	LD   R26,Y
0002e6 dfb5      	RCALL __lcd_write_data
0002e7 98a8      	CBI  0x15,0
0002e8 940c 06c9 	JMP  _0x20E0004
                 ; .FEND
                 _lcd_puts:
                 ; .FSTART _lcd_puts
0002ea 93ba      	ST   -Y,R27
0002eb 93aa      	ST   -Y,R26
0002ec 931a      	ST   -Y,R17
                 _0x2000008:
0002ed 81a9      	LDD  R26,Y+1
0002ee 81ba      	LDD  R27,Y+1+1
0002ef 91ed      	LD   R30,X+
0002f0 83a9      	STD  Y+1,R26
0002f1 83ba      	STD  Y+1+1,R27
0002f2 2f1e      	MOV  R17,R30
0002f3 30e0      	CPI  R30,0
0002f4 f019      	BREQ _0x200000A
0002f5 2fa1      	MOV  R26,R17
0002f6 dfd1      	RCALL _lcd_putchar
0002f7 cff5      	RJMP _0x2000008
                 _0x200000A:
0002f8 8118      	LDD  R17,Y+0
0002f9 c04a      	RJMP _0x20E0007
                 ; .FEND
                 _lcd_putsf:
                 ; .FSTART _lcd_putsf
0002fa 93ba      	ST   -Y,R27
0002fb 93aa      	ST   -Y,R26
0002fc 931a      	ST   -Y,R17
                 _0x200000B:
0002fd 81e9      	LDD  R30,Y+1
0002fe 81fa      	LDD  R31,Y+1+1
0002ff 9631      	ADIW R30,1
000300 83e9      	STD  Y+1,R30
000301 83fa      	STD  Y+1+1,R31
000302 9731      	SBIW R30,1
000303 91e4      	LPM  R30,Z
000304 2f1e      	MOV  R17,R30
000305 30e0      	CPI  R30,0
000306 f019      	BREQ _0x200000D
000307 2fa1      	MOV  R26,R17
000308 dfbf      	RCALL _lcd_putchar
000309 cff3      	RJMP _0x200000B
                 _0x200000D:
00030a 8118      	LDD  R17,Y+0
00030b c038      	RJMP _0x20E0007
                 ; .FEND
                 _lcd_init:
                 ; .FSTART _lcd_init
00030c 93aa      	ST   -Y,R26
00030d b3e4      	IN   R30,0x14
00030e 6fe0      	ORI  R30,LOW(0xF0)
00030f bbe4      	OUT  0x14,R30
000310 9aa2      	SBI  0x14,2
000311 9aa0      	SBI  0x14,0
000312 9aa1      	SBI  0x14,1
000313 98aa      	CBI  0x15,2
000314 98a8      	CBI  0x15,0
000315 98a9      	CBI  0x15,1
000316 81e8      	LD   R30,Y
000317 93e0 0186 	STS  __lcd_maxx,R30
000319 58e0      	SUBI R30,-LOW(128)
                +
00031a 93e0 0182+STS __base_y_G100 + ( 2 ) , R30
                 	__PUTB1MN __base_y_G100,2
00031c 81e8      	LD   R30,Y
00031d 54e0      	SUBI R30,-LOW(192)
                +
00031e 93e0 0183+STS __base_y_G100 + ( 3 ) , R30
                 	__PUTB1MN __base_y_G100,3
000320 e1a4      	LDI  R26,LOW(20)
000321 e0b0      	LDI  R27,0
000322 940e 0908 	CALL _delay_ms
000324 940e 0814 	CALL SUBOPT_0xA
000326 940e 0814 	CALL SUBOPT_0xA
000328 940e 0814 	CALL SUBOPT_0xA
00032a e2a0      	LDI  R26,LOW(32)
00032b df5b      	RCALL __lcd_write_nibble_G100
                +
00032c ec88     +LDI R24 , LOW ( 200 )
00032d e090     +LDI R25 , HIGH ( 200 )
                +__DELAY_USW_LOOP :
00032e 9701     +SBIW R24 , 1
00032f f7f1     +BRNE __DELAY_USW_LOOP
                 	__DELAY_USW 200
000330 e2a8      	LDI  R26,LOW(40)
000331 df6a      	RCALL __lcd_write_data
000332 e0a4      	LDI  R26,LOW(4)
000333 df68      	RCALL __lcd_write_data
000334 e8a5      	LDI  R26,LOW(133)
000335 df66      	RCALL __lcd_write_data
000336 e0a6      	LDI  R26,LOW(6)
000337 df64      	RCALL __lcd_write_data
000338 df81      	RCALL _lcd_clear
000339 940c 06c9 	JMP  _0x20E0004
                 ; .FEND
                 	#ifndef __SLEEP_DEFINED__
                 	#endif
                 
                 	.CSEG
                 _put_usart_G101:
                 ; .FSTART _put_usart_G101
00033b 93ba      	ST   -Y,R27
00033c 93aa      	ST   -Y,R26
00033d 81aa      	LDD  R26,Y+2
00033e 940e 0149 	CALL _putchar
000340 81a8      	LD   R26,Y
000341 81b9      	LDD  R27,Y+1
000342 940e 081c 	CALL SUBOPT_0xB
                 _0x20E0007:
000344 9623      	ADIW R28,3
000345 9508      	RET
                 ; .FEND
                 _put_buff_G101:
                 ; .FSTART _put_buff_G101
000346 93ba      	ST   -Y,R27
000347 93aa      	ST   -Y,R26
000348 931a      	ST   -Y,R17
000349 930a      	ST   -Y,R16
00034a 81aa      	LDD  R26,Y+2
00034b 81bb      	LDD  R27,Y+2+1
00034c 9612      	ADIW R26,2
00034d 940e 0b26 	CALL __GETW1P
00034f 9730      	SBIW R30,0
000350 f129      	BREQ _0x2020010
000351 81aa      	LDD  R26,Y+2
000352 81bb      	LDD  R27,Y+2+1
000353 9614      	ADIW R26,4
000354 940e 0b26 	CALL __GETW1P
000356 018f      	MOVW R16,R30
000357 9730      	SBIW R30,0
000358 f061      	BREQ _0x2020012
                +
000359 3002     +CPI R16 , LOW ( 2 )
00035a e0e0     +LDI R30 , HIGH ( 2 )
00035b 071e     +CPC R17 , R30
                 	__CPWRN 16,17,2
00035c f080      	BRLO _0x2020013
00035d 01f8      	MOVW R30,R16
00035e 9731      	SBIW R30,1
00035f 018f      	MOVW R16,R30
                +
000360 81aa     +LDD R26 , Y + 2
000361 81bb     +LDD R27 , Y + 2 + 1
000362 9614     +ADIW R26 , 4
000363 93ed     +ST X + , R30
000364 93fc     +ST X , R31
                 	__PUTW1SNS 2,4
                 _0x2020012:
000365 81aa      	LDD  R26,Y+2
000366 81bb      	LDD  R27,Y+2+1
000367 9612      	ADIW R26,2
000368 940e 081c 	CALL SUBOPT_0xB
00036a 9731      	SBIW R30,1
00036b 81ac      	LDD  R26,Y+4
00036c 83a0      	STD  Z+0,R26
                 _0x2020013:
00036d 81aa      	LDD  R26,Y+2
00036e 81bb      	LDD  R27,Y+2+1
00036f 940e 0b26 	CALL __GETW1P
000371 23ff      	TST  R31
000372 f012      	BRMI _0x2020014
000373 940e 081c 	CALL SUBOPT_0xB
                 _0x2020014:
000375 c006      	RJMP _0x2020015
                 _0x2020010:
000376 81aa      	LDD  R26,Y+2
000377 81bb      	LDD  R27,Y+2+1
000378 efef      	LDI  R30,LOW(65535)
000379 efff      	LDI  R31,HIGH(65535)
00037a 93ed      	ST   X+,R30
00037b 93fc      	ST   X,R31
                 _0x2020015:
00037c 8119      	LDD  R17,Y+1
00037d 8108      	LDD  R16,Y+0
00037e 9625      	ADIW R28,5
00037f 9508      	RET
                 ; .FEND
                 __ftoe_G101:
                 ; .FSTART __ftoe_G101
000380 940e 0822 	CALL SUBOPT_0xC
000382 e8e0      	LDI  R30,LOW(128)
000383 83ea      	STD  Y+2,R30
000384 e3ef      	LDI  R30,LOW(63)
000385 83eb      	STD  Y+3,R30
000386 940e 0b5c 	CALL __SAVELOCR4
000388 85ee      	LDD  R30,Y+14
000389 85ff      	LDD  R31,Y+14+1
00038a 3fef      	CPI  R30,LOW(0xFFFF)
00038b efaf      	LDI  R26,HIGH(0xFFFF)
00038c 07fa      	CPC  R31,R26
00038d f449      	BRNE _0x2020019
00038e 85e8      	LDD  R30,Y+8
00038f 85f9      	LDD  R31,Y+8+1
000390 93fa      	ST   -Y,R31
000391 93ea      	ST   -Y,R30
                +
000392 e7a0     +LDI R26 , LOW ( 2 * _0x2020000 + ( 0 ) )
000393 e0b1     +LDI R27 , HIGH ( 2 * _0x2020000 + ( 0 ) )
                 	__POINTW2FN _0x2020000,0
000394 940e 06cb 	CALL _strcpyf
000396 c0c1      	RJMP _0x20E0006
                 _0x2020019:
000397 3fef      	CPI  R30,LOW(0x7FFF)
000398 e7af      	LDI  R26,HIGH(0x7FFF)
000399 07fa      	CPC  R31,R26
00039a f449      	BRNE _0x2020018
00039b 85e8      	LDD  R30,Y+8
00039c 85f9      	LDD  R31,Y+8+1
00039d 93fa      	ST   -Y,R31
00039e 93ea      	ST   -Y,R30
                +
00039f e7a1     +LDI R26 , LOW ( 2 * _0x2020000 + ( 1 ) )
0003a0 e0b1     +LDI R27 , HIGH ( 2 * _0x2020000 + ( 1 ) )
                 	__POINTW2FN _0x2020000,1
0003a1 940e 06cb 	CALL _strcpyf
0003a3 c0b4      	RJMP _0x20E0006
                 _0x2020018:
0003a4 85ab      	LDD  R26,Y+11
0003a5 30a7      	CPI  R26,LOW(0x7)
0003a6 f010      	BRLO _0x202001B
0003a7 e0e6      	LDI  R30,LOW(6)
0003a8 87eb      	STD  Y+11,R30
                 _0x202001B:
0003a9 851b      	LDD  R17,Y+11
                 _0x202001C:
0003aa 2fe1      	MOV  R30,R17
0003ab 5011      	SUBI R17,1
0003ac 30e0      	CPI  R30,0
0003ad f029      	BREQ _0x202001E
0003ae 940e 0829 	CALL SUBOPT_0xD
0003b0 940e 082e 	CALL SUBOPT_0xE
0003b2 cff7      	RJMP _0x202001C
                 _0x202001E:
                +
0003b3 85ec     +LDD R30 , Y + 12
0003b4 85fd     +LDD R31 , Y + 12 + 1
0003b5 856e     +LDD R22 , Y + 12 + 2
0003b6 857f     +LDD R23 , Y + 12 + 3
                 	__GETD1S 12
0003b7 940e 0b56 	CALL __CPD10
0003b9 f431      	BRNE _0x202001F
0003ba e030      	LDI  R19,LOW(0)
0003bb 940e 0829 	CALL SUBOPT_0xD
0003bd 940e 082e 	CALL SUBOPT_0xE
0003bf c031      	RJMP _0x2020020
                 _0x202001F:
0003c0 853b      	LDD  R19,Y+11
0003c1 940e 0833 	CALL SUBOPT_0xF
0003c3 f009      	BREQ PC+2
0003c4 f408      	BRCC PC+2
0003c5 c00d      	RJMP _0x2020021
0003c6 940e 0829 	CALL SUBOPT_0xD
0003c8 940e 082e 	CALL SUBOPT_0xE
                 _0x2020022:
0003ca 940e 0833 	CALL SUBOPT_0xF
0003cc f028      	BRLO _0x2020024
0003cd 940e 083e 	CALL SUBOPT_0x10
0003cf 940e 0843 	CALL SUBOPT_0x11
0003d1 cff8      	RJMP _0x2020022
                 _0x2020024:
0003d2 c00f      	RJMP _0x2020025
                 _0x2020021:
                 _0x2020026:
0003d3 940e 0833 	CALL SUBOPT_0xF
0003d5 f440      	BRSH _0x2020028
0003d6 940e 083e 	CALL SUBOPT_0x10
0003d8 940e 0802 	CALL SUBOPT_0x7
0003da 940e 084f 	CALL SUBOPT_0x12
0003dc 5031      	SUBI R19,LOW(1)
0003dd cff5      	RJMP _0x2020026
                 _0x2020028:
0003de 940e 0829 	CALL SUBOPT_0xD
0003e0 940e 082e 	CALL SUBOPT_0xE
                 _0x2020025:
                +
0003e2 85ec     +LDD R30 , Y + 12
0003e3 85fd     +LDD R31 , Y + 12 + 1
0003e4 856e     +LDD R22 , Y + 12 + 2
0003e5 857f     +LDD R23 , Y + 12 + 3
                 	__GETD1S 12
0003e6 940e 0854 	CALL SUBOPT_0x13
0003e8 940e 084f 	CALL SUBOPT_0x12
0003ea 940e 0833 	CALL SUBOPT_0xF
0003ec f020      	BRLO _0x2020029
0003ed 940e 083e 	CALL SUBOPT_0x10
0003ef 940e 0843 	CALL SUBOPT_0x11
                 _0x2020029:
                 _0x2020020:
0003f1 e010      	LDI  R17,LOW(0)
                 _0x202002A:
0003f2 85eb      	LDD  R30,Y+11
0003f3 17e1      	CP   R30,R17
0003f4 f1b8      	BRLO _0x202002C
                +
0003f5 81ac     +LDD R26 , Y + 4
0003f6 81bd     +LDD R27 , Y + 4 + 1
0003f7 818e     +LDD R24 , Y + 4 + 2
0003f8 819f     +LDD R25 , Y + 4 + 3
                 	__GETD2S 4
0003f9 940e 085b 	CALL SUBOPT_0x14
0003fb 940e 0854 	CALL SUBOPT_0x13
0003fd 01df      	MOVW R26,R30
0003fe 01cb      	MOVW R24,R22
0003ff 940e 0722 	CALL _floor
000401 940e 082e 	CALL SUBOPT_0xE
                +
000403 81ec     +LDD R30 , Y + 4
000404 81fd     +LDD R31 , Y + 4 + 1
000405 816e     +LDD R22 , Y + 4 + 2
000406 817f     +LDD R23 , Y + 4 + 3
                 	__GETD1S 4
000407 940e 083e 	CALL SUBOPT_0x10
000409 940e 0a56 	CALL __DIVF21
00040b 940e 0945 	CALL __CFD1U
00040d 2f0e      	MOV  R16,R30
00040e 940e 0862 	CALL SUBOPT_0x15
000410 940e 0869 	CALL SUBOPT_0x16
000412 27ff      	CLR  R31
000413 2766      	CLR  R22
000414 2777      	CLR  R23
000415 940e 097e 	CALL __CDF1
                +
000417 81ac     +LDD R26 , Y + 4
000418 81bd     +LDD R27 , Y + 4 + 1
000419 818e     +LDD R24 , Y + 4 + 2
00041a 819f     +LDD R25 , Y + 4 + 3
                 	__GETD2S 4
00041b 940e 0a08 	CALL __MULF12
00041d 940e 083e 	CALL SUBOPT_0x10
00041f 940e 086e 	CALL SUBOPT_0x17
000421 940e 084f 	CALL SUBOPT_0x12
000423 2fe1      	MOV  R30,R17
000424 5f1f      	SUBI R17,-1
000425 30e0      	CPI  R30,0
000426 f659      	BRNE _0x202002A
000427 940e 0862 	CALL SUBOPT_0x15
000429 e2ee      	LDI  R30,LOW(46)
00042a 93ec      	ST   X,R30
00042b cfc6      	RJMP _0x202002A
                 _0x202002C:
00042c 940e 0873 	CALL SUBOPT_0x18
00042e 9731      	SBIW R30,1
00042f 85aa      	LDD  R26,Y+10
000430 83a0      	STD  Z+0,R26
000431 3030      	CPI  R19,0
000432 f42c      	BRGE _0x202002E
000433 9531      	NEG  R19
000434 85a8      	LDD  R26,Y+8
000435 85b9      	LDD  R27,Y+8+1
000436 e2ed      	LDI  R30,LOW(45)
000437 c003      	RJMP _0x2020113
                 _0x202002E:
000438 85a8      	LDD  R26,Y+8
000439 85b9      	LDD  R27,Y+8+1
00043a e2eb      	LDI  R30,LOW(43)
                 _0x2020113:
00043b 93ec      	ST   X,R30
00043c 940e 0873 	CALL SUBOPT_0x18
00043e 940e 0873 	CALL SUBOPT_0x18
000440 9731      	SBIW R30,1
000441 01bf      	MOVW R22,R30
000442 2fa3      	MOV  R26,R19
000443 e0ea      	LDI  R30,LOW(10)
000444 940e 0ae0 	CALL __DIVB21
000446 5de0      	SUBI R30,-LOW(48)
000447 01db      	MOVW R26,R22
000448 93ec      	ST   X,R30
000449 940e 0873 	CALL SUBOPT_0x18
00044b 9731      	SBIW R30,1
00044c 01bf      	MOVW R22,R30
00044d 2fa3      	MOV  R26,R19
00044e e0ea      	LDI  R30,LOW(10)
00044f 940e 0b0a 	CALL __MODB21
000451 5de0      	SUBI R30,-LOW(48)
000452 01db      	MOVW R26,R22
000453 93ec      	ST   X,R30
000454 85a8      	LDD  R26,Y+8
000455 85b9      	LDD  R27,Y+8+1
000456 e0e0      	LDI  R30,LOW(0)
000457 93ec      	ST   X,R30
                 _0x20E0006:
000458 940e 0b63 	CALL __LOADLOCR4
00045a 9660      	ADIW R28,16
00045b 9508      	RET
                 ; .FEND
                 __print_G101:
                 ; .FSTART __print_G101
00045c 93ba      	ST   -Y,R27
00045d 93aa      	ST   -Y,R26
00045e 97ef      	SBIW R28,63
00045f 9761      	SBIW R28,17
000460 940e 0b5a 	CALL __SAVELOCR6
000462 e010      	LDI  R17,0
                +
000463 01fe     +MOVW R30 , R28
000464 5ae8     +SUBI R30 , LOW ( - 88 )
000465 4fff     +SBCI R31 , HIGH ( - 88 )
000466 9001     +LD R0 , Z +
000467 81f0     +LD R31 , Z
000468 2de0     +MOV R30 , R0
                 	__GETW1SX 88
000469 87e8      	STD  Y+8,R30
00046a 87f9      	STD  Y+8+1,R31
                +
00046b 01fe     +MOVW R30 , R28
00046c 5aea     +SUBI R30 , LOW ( - 86 )
00046d 4fff     +SBCI R31 , HIGH ( - 86 )
00046e 9001     +LD R0 , Z +
00046f 81f0     +LD R31 , Z
000470 2de0     +MOV R30 , R0
                 	__GETW1SX 86
000471 83ee      	STD  Y+6,R30
000472 83ff      	STD  Y+6+1,R31
000473 81ae      	LDD  R26,Y+6
000474 81bf      	LDD  R27,Y+6+1
000475 e0e0      	LDI  R30,LOW(0)
000476 e0f0      	LDI  R31,HIGH(0)
000477 93ed      	ST   X+,R30
000478 93fc      	ST   X,R31
                 _0x2020030:
000479 01de      	MOVW R26,R28
00047a 5aa4      	SUBI R26,LOW(-(92))
00047b 4fbf      	SBCI R27,HIGH(-(92))
00047c 940e 081c 	CALL SUBOPT_0xB
00047e 9731      	SBIW R30,1
00047f 91e4      	LPM  R30,Z
000480 2f2e      	MOV  R18,R30
000481 30e0      	CPI  R30,0
000482 f409      	BRNE PC+2
000483 c1e9      	RJMP _0x2020032
000484 2fe1      	MOV  R30,R17
000485 30e0      	CPI  R30,0
000486 f439      	BRNE _0x2020036
000487 3225      	CPI  R18,37
000488 f411      	BRNE _0x2020037
000489 e011      	LDI  R17,LOW(1)
00048a c002      	RJMP _0x2020038
                 _0x2020037:
00048b 940e 0879 	CALL SUBOPT_0x19
                 _0x2020038:
00048d c1de      	RJMP _0x2020035
                 _0x2020036:
00048e 30e1      	CPI  R30,LOW(0x1)
00048f f4c1      	BRNE _0x2020039
000490 3225      	CPI  R18,37
000491 f419      	BRNE _0x202003A
000492 940e 0879 	CALL SUBOPT_0x19
000494 c1d6      	RJMP _0x2020114
                 _0x202003A:
000495 e012      	LDI  R17,LOW(2)
000496 e0e0      	LDI  R30,LOW(0)
000497 8bed      	STD  Y+21,R30
000498 e000      	LDI  R16,LOW(0)
000499 322d      	CPI  R18,45
00049a f411      	BRNE _0x202003B
00049b e001      	LDI  R16,LOW(1)
00049c c1cf      	RJMP _0x2020035
                 _0x202003B:
00049d 322b      	CPI  R18,43
00049e f419      	BRNE _0x202003C
00049f e2eb      	LDI  R30,LOW(43)
0004a0 8bed      	STD  Y+21,R30
0004a1 c1ca      	RJMP _0x2020035
                 _0x202003C:
0004a2 3220      	CPI  R18,32
0004a3 f419      	BRNE _0x202003D
0004a4 e2e0      	LDI  R30,LOW(32)
0004a5 8bed      	STD  Y+21,R30
0004a6 c1c5      	RJMP _0x2020035
                 _0x202003D:
0004a7 c002      	RJMP _0x202003E
                 _0x2020039:
0004a8 30e2      	CPI  R30,LOW(0x2)
0004a9 f439      	BRNE _0x202003F
                 _0x202003E:
0004aa e050      	LDI  R21,LOW(0)
0004ab e013      	LDI  R17,LOW(3)
0004ac 3320      	CPI  R18,48
0004ad f411      	BRNE _0x2020040
0004ae 6800      	ORI  R16,LOW(128)
0004af c1bc      	RJMP _0x2020035
                 _0x2020040:
0004b0 c002      	RJMP _0x2020041
                 _0x202003F:
0004b1 30e3      	CPI  R30,LOW(0x3)
0004b2 f491      	BRNE _0x2020042
                 _0x2020041:
0004b3 3320      	CPI  R18,48
0004b4 f010      	BRLO _0x2020044
0004b5 332a      	CPI  R18,58
0004b6 f008      	BRLO _0x2020045
                 _0x2020044:
0004b7 c007      	RJMP _0x2020043
                 _0x2020045:
0004b8 e0aa      	LDI  R26,LOW(10)
0004b9 9f5a      	MUL  R21,R26
0004ba 2d50      	MOV  R21,R0
0004bb 2fe2      	MOV  R30,R18
0004bc 53e0      	SUBI R30,LOW(48)
0004bd 0f5e      	ADD  R21,R30
0004be c1ad      	RJMP _0x2020035
                 _0x2020043:
0004bf e040      	LDI  R20,LOW(0)
0004c0 322e      	CPI  R18,46
0004c1 f411      	BRNE _0x2020046
0004c2 e014      	LDI  R17,LOW(4)
0004c3 c1a8      	RJMP _0x2020035
                 _0x2020046:
0004c4 c00f      	RJMP _0x2020047
                 _0x2020042:
0004c5 30e4      	CPI  R30,LOW(0x4)
0004c6 f499      	BRNE _0x2020049
0004c7 3320      	CPI  R18,48
0004c8 f010      	BRLO _0x202004B
0004c9 332a      	CPI  R18,58
0004ca f008      	BRLO _0x202004C
                 _0x202004B:
0004cb c008      	RJMP _0x202004A
                 _0x202004C:
0004cc 6200      	ORI  R16,LOW(32)
0004cd e0aa      	LDI  R26,LOW(10)
0004ce 9f4a      	MUL  R20,R26
0004cf 2d40      	MOV  R20,R0
0004d0 2fe2      	MOV  R30,R18
0004d1 53e0      	SUBI R30,LOW(48)
0004d2 0f4e      	ADD  R20,R30
0004d3 c198      	RJMP _0x2020035
                 _0x202004A:
                 _0x2020047:
0004d4 362c      	CPI  R18,108
0004d5 f419      	BRNE _0x202004D
0004d6 6002      	ORI  R16,LOW(2)
0004d7 e015      	LDI  R17,LOW(5)
0004d8 c193      	RJMP _0x2020035
                 _0x202004D:
0004d9 c003      	RJMP _0x202004E
                 _0x2020049:
0004da 30e5      	CPI  R30,LOW(0x5)
0004db f009      	BREQ PC+2
0004dc c18f      	RJMP _0x2020035
                 _0x202004E:
0004dd 2fe2      	MOV  R30,R18
0004de 36e3      	CPI  R30,LOW(0x63)
0004df f459      	BRNE _0x2020053
0004e0 940e 0880 	CALL SUBOPT_0x1A
0004e2 940e 0887 	CALL SUBOPT_0x1B
0004e4 940e 0880 	CALL SUBOPT_0x1A
0004e6 81a4      	LDD  R26,Z+4
0004e7 93aa      	ST   -Y,R26
0004e8 940e 088e 	CALL SUBOPT_0x1C
0004ea c180      	RJMP _0x2020054
                 _0x2020053:
0004eb 34e5      	CPI  R30,LOW(0x45)
0004ec f011      	BREQ _0x2020057
0004ed 36e5      	CPI  R30,LOW(0x65)
0004ee f409      	BRNE _0x2020058
                 _0x2020057:
0004ef c003      	RJMP _0x2020059
                 _0x2020058:
0004f0 36e6      	CPI  R30,LOW(0x66)
0004f1 f009      	BREQ PC+2
0004f2 c048      	RJMP _0x202005A
                 _0x2020059:
0004f3 01fe      	MOVW R30,R28
0004f4 9676      	ADIW R30,22
0004f5 87ee      	STD  Y+14,R30
0004f6 87ff      	STD  Y+14+1,R31
0004f7 940e 0894 	CALL SUBOPT_0x1D
0004f9 940e 0b2a 	CALL __GETD1P
0004fb 940e 089b 	CALL SUBOPT_0x1E
0004fd 940e 08a0 	CALL SUBOPT_0x1F
0004ff 85ad      	LDD  R26,Y+13
000500 23aa      	TST  R26
000501 f032      	BRMI _0x202005B
000502 89ad      	LDD  R26,Y+21
000503 32ab      	CPI  R26,LOW(0x2B)
000504 f059      	BREQ _0x202005D
000505 32a0      	CPI  R26,LOW(0x20)
000506 f081      	BREQ _0x202005F
000507 c017      	RJMP _0x2020060
                 _0x202005B:
000508 940e 08a2 	CALL SUBOPT_0x20
00050a 940e 0912 	CALL __ANEGF1
00050c 940e 089b 	CALL SUBOPT_0x1E
00050e e2ed      	LDI  R30,LOW(45)
00050f 8bed      	STD  Y+21,R30
                 _0x202005D:
000510 ff07      	SBRS R16,7
000511 c005      	RJMP _0x2020061
000512 89ed      	LDD  R30,Y+21
000513 93ea      	ST   -Y,R30
000514 940e 088e 	CALL SUBOPT_0x1C
000516 c008      	RJMP _0x2020062
                 _0x2020061:
                 _0x202005F:
000517 85ee      	LDD  R30,Y+14
000518 85ff      	LDD  R31,Y+14+1
000519 9631      	ADIW R30,1
00051a 87ee      	STD  Y+14,R30
00051b 87ff      	STD  Y+14+1,R31
00051c 9731      	SBIW R30,1
00051d 89ad      	LDD  R26,Y+21
00051e 83a0      	STD  Z+0,R26
                 _0x2020062:
                 _0x2020060:
00051f ff05      	SBRS R16,5
000520 e046      	LDI  R20,LOW(6)
000521 3626      	CPI  R18,102
000522 f451      	BRNE _0x2020064
000523 940e 08a2 	CALL SUBOPT_0x20
000525 940e 0b3f 	CALL __PUTPARD1
000527 934a      	ST   -Y,R20
000528 89ab      	LDD  R26,Y+19
000529 89bc      	LDD  R27,Y+19+1
00052a 940e 0739 	CALL _ftoa
00052c c009      	RJMP _0x2020065
                 _0x2020064:
00052d 940e 08a2 	CALL SUBOPT_0x20
00052f 940e 0b3f 	CALL __PUTPARD1
000531 934a      	ST   -Y,R20
000532 932a      	ST   -Y,R18
000533 89ac      	LDD  R26,Y+20
000534 89bd      	LDD  R27,Y+20+1
000535 de4a      	RCALL __ftoe_G101
                 _0x2020065:
000536 01fe      	MOVW R30,R28
000537 9676      	ADIW R30,22
000538 940e 08a7 	CALL SUBOPT_0x21
00053a c01e      	RJMP _0x2020066
                 _0x202005A:
00053b 37e3      	CPI  R30,LOW(0x73)
00053c f439      	BRNE _0x2020068
00053d 940e 08a0 	CALL SUBOPT_0x1F
00053f 940e 08af 	CALL SUBOPT_0x22
000541 940e 08a7 	CALL SUBOPT_0x21
000543 c00e      	RJMP _0x2020069
                 _0x2020068:
000544 37e0      	CPI  R30,LOW(0x70)
000545 f4c1      	BRNE _0x202006B
000546 940e 08a0 	CALL SUBOPT_0x1F
000548 940e 08af 	CALL SUBOPT_0x22
00054a 87ee      	STD  Y+14,R30
00054b 87ff      	STD  Y+14+1,R31
00054c 85ae      	LDD  R26,Y+14
00054d 85bf      	LDD  R27,Y+14+1
00054e 940e 06e4 	CALL _strlenf
000550 2f1e      	MOV  R17,R30
000551 6008      	ORI  R16,LOW(8)
                 _0x2020069:
000552 770f      	ANDI R16,LOW(127)
000553 3040      	CPI  R20,0
000554 f011      	BREQ _0x202006D
000555 1741      	CP   R20,R17
000556 f008      	BRLO _0x202006E
                 _0x202006D:
000557 c001      	RJMP _0x202006C
                 _0x202006E:
000558 2f14      	MOV  R17,R20
                 _0x202006C:
                 _0x2020066:
000559 e040      	LDI  R20,LOW(0)
00055a e0e0      	LDI  R30,LOW(0)
00055b 8bec      	STD  Y+20,R30
00055c e030      	LDI  R19,LOW(0)
00055d c06d      	RJMP _0x202006F
                 _0x202006B:
00055e 36e4      	CPI  R30,LOW(0x64)
00055f f011      	BREQ _0x2020072
000560 36e9      	CPI  R30,LOW(0x69)
000561 f411      	BRNE _0x2020073
                 _0x2020072:
000562 6004      	ORI  R16,LOW(4)
000563 c002      	RJMP _0x2020074
                 _0x2020073:
000564 37e5      	CPI  R30,LOW(0x75)
000565 f4a1      	BRNE _0x2020075
                 _0x2020074:
000566 e0ea      	LDI  R30,LOW(10)
000567 8bec      	STD  Y+20,R30
000568 ff01      	SBRS R16,1
000569 c008      	RJMP _0x2020076
                +
00056a e0e0     +LDI R30 , LOW ( 0x3B9ACA00 )
00056b ecfa     +LDI R31 , HIGH ( 0x3B9ACA00 )
00056c e96a     +LDI R22 , BYTE3 ( 0x3B9ACA00 )
00056d e37b     +LDI R23 , BYTE4 ( 0x3B9ACA00 )
                 	__GETD1N 0x3B9ACA00
00056e 940e 0809 	CALL SUBOPT_0x8
000570 e01a      	LDI  R17,LOW(10)
000571 c022      	RJMP _0x2020077
                 _0x2020076:
                +
000572 e1e0     +LDI R30 , LOW ( 0x2710 )
000573 e2f7     +LDI R31 , HIGH ( 0x2710 )
000574 e060     +LDI R22 , BYTE3 ( 0x2710 )
000575 e070     +LDI R23 , BYTE4 ( 0x2710 )
                 	__GETD1N 0x2710
000576 940e 0809 	CALL SUBOPT_0x8
000578 e015      	LDI  R17,LOW(5)
000579 c01a      	RJMP _0x2020077
                 _0x2020075:
00057a 35e8      	CPI  R30,LOW(0x58)
00057b f411      	BRNE _0x2020079
00057c 6008      	ORI  R16,LOW(8)
00057d c003      	RJMP _0x202007A
                 _0x2020079:
00057e 37e8      	CPI  R30,LOW(0x78)
00057f f009      	BREQ PC+2
000580 c0ea      	RJMP _0x20200B8
                 _0x202007A:
000581 e1e0      	LDI  R30,LOW(16)
000582 8bec      	STD  Y+20,R30
000583 ff01      	SBRS R16,1
000584 c008      	RJMP _0x202007C
                +
000585 e0e0     +LDI R30 , LOW ( 0x10000000 )
000586 e0f0     +LDI R31 , HIGH ( 0x10000000 )
000587 e060     +LDI R22 , BYTE3 ( 0x10000000 )
000588 e170     +LDI R23 , BYTE4 ( 0x10000000 )
                 	__GETD1N 0x10000000
000589 940e 0809 	CALL SUBOPT_0x8
00058b e018      	LDI  R17,LOW(8)
00058c c007      	RJMP _0x2020077
                 _0x202007C:
                +
00058d e0e0     +LDI R30 , LOW ( 0x1000 )
00058e e1f0     +LDI R31 , HIGH ( 0x1000 )
00058f e060     +LDI R22 , BYTE3 ( 0x1000 )
000590 e070     +LDI R23 , BYTE4 ( 0x1000 )
                 	__GETD1N 0x1000
000591 940e 0809 	CALL SUBOPT_0x8
000593 e014      	LDI  R17,LOW(4)
                 _0x2020077:
000594 3040      	CPI  R20,0
000595 f011      	BREQ _0x202007D
000596 770f      	ANDI R16,LOW(127)
000597 c001      	RJMP _0x202007E
                 _0x202007D:
000598 e041      	LDI  R20,LOW(1)
                 _0x202007E:
000599 ff01      	SBRS R16,1
00059a c008      	RJMP _0x202007F
00059b 940e 08a0 	CALL SUBOPT_0x1F
00059d 940e 0894 	CALL SUBOPT_0x1D
00059f 9614      	ADIW R26,4
0005a0 940e 0b2a 	CALL __GETD1P
0005a2 c00f      	RJMP _0x2020115
                 _0x202007F:
0005a3 ff02      	SBRS R16,2
0005a4 c007      	RJMP _0x2020081
0005a5 940e 08a0 	CALL SUBOPT_0x1F
0005a7 940e 08af 	CALL SUBOPT_0x22
0005a9 940e 0acd 	CALL __CWD1
0005ab c006      	RJMP _0x2020115
                 _0x2020081:
0005ac 940e 08a0 	CALL SUBOPT_0x1F
0005ae 940e 08af 	CALL SUBOPT_0x22
0005b0 2766      	CLR  R22
0005b1 2777      	CLR  R23
                 _0x2020115:
                +
0005b2 87ea     +STD Y + 10 , R30
0005b3 87fb     +STD Y + 10 + 1 , R31
0005b4 876c     +STD Y + 10 + 2 , R22
0005b5 877d     +STD Y + 10 + 3 , R23
                 	__PUTD1S 10
0005b6 ff02      	SBRS R16,2
0005b7 c012      	RJMP _0x2020083
0005b8 85ad      	LDD  R26,Y+13
0005b9 23aa      	TST  R26
0005ba f442      	BRPL _0x2020084
0005bb 940e 08a2 	CALL SUBOPT_0x20
0005bd 940e 0abf 	CALL __ANEGD1
0005bf 940e 089b 	CALL SUBOPT_0x1E
0005c1 e2ed      	LDI  R30,LOW(45)
0005c2 8bed      	STD  Y+21,R30
                 _0x2020084:
0005c3 89ed      	LDD  R30,Y+21
0005c4 30e0      	CPI  R30,0
0005c5 f019      	BREQ _0x2020085
0005c6 5f1f      	SUBI R17,-LOW(1)
0005c7 5f4f      	SUBI R20,-LOW(1)
0005c8 c001      	RJMP _0x2020086
                 _0x2020085:
0005c9 7f0b      	ANDI R16,LOW(251)
                 _0x2020086:
                 _0x2020083:
0005ca 2f34      	MOV  R19,R20
                 _0x202006F:
0005cb fd00      	SBRC R16,0
0005cc c014      	RJMP _0x2020087
                 _0x2020088:
0005cd 1715      	CP   R17,R21
0005ce f410      	BRSH _0x202008B
0005cf 1735      	CP   R19,R21
0005d0 f008      	BRLO _0x202008C
                 _0x202008B:
0005d1 c00f      	RJMP _0x202008A
                 _0x202008C:
0005d2 ff07      	SBRS R16,7
0005d3 c008      	RJMP _0x202008D
0005d4 ff02      	SBRS R16,2
0005d5 c004      	RJMP _0x202008E
0005d6 7f0b      	ANDI R16,LOW(251)
0005d7 892d      	LDD  R18,Y+21
0005d8 5011      	SUBI R17,LOW(1)
0005d9 c001      	RJMP _0x202008F
                 _0x202008E:
0005da e320      	LDI  R18,LOW(48)
                 _0x202008F:
0005db c001      	RJMP _0x2020090
                 _0x202008D:
0005dc e220      	LDI  R18,LOW(32)
                 _0x2020090:
0005dd 940e 0879 	CALL SUBOPT_0x19
0005df 5051      	SUBI R21,LOW(1)
0005e0 cfec      	RJMP _0x2020088
                 _0x202008A:
                 _0x2020087:
                 _0x2020091:
0005e1 1714      	CP   R17,R20
0005e2 f490      	BRSH _0x2020093
0005e3 6100      	ORI  R16,LOW(16)
0005e4 ff02      	SBRS R16,2
0005e5 c006      	RJMP _0x2020094
0005e6 940e 08b4 	CALL SUBOPT_0x23
0005e8 f009      	BREQ _0x2020095
0005e9 5051      	SUBI R21,LOW(1)
                 _0x2020095:
0005ea 5011      	SUBI R17,LOW(1)
0005eb 5041      	SUBI R20,LOW(1)
                 _0x2020094:
0005ec e3e0      	LDI  R30,LOW(48)
0005ed 93ea      	ST   -Y,R30
0005ee 940e 088e 	CALL SUBOPT_0x1C
0005f0 3050      	CPI  R21,0
0005f1 f009      	BREQ _0x2020096
0005f2 5051      	SUBI R21,LOW(1)
                 _0x2020096:
0005f3 5041      	SUBI R20,LOW(1)
0005f4 cfec      	RJMP _0x2020091
                 _0x2020093:
0005f5 2f31      	MOV  R19,R17
0005f6 89ec      	LDD  R30,Y+20
0005f7 30e0      	CPI  R30,0
0005f8 f4b9      	BRNE _0x2020097
                 _0x2020098:
0005f9 3030      	CPI  R19,0
0005fa f0a1      	BREQ _0x202009A
0005fb ff03      	SBRS R16,3
0005fc c006      	RJMP _0x202009B
0005fd 85ee      	LDD  R30,Y+14
0005fe 85ff      	LDD  R31,Y+14+1
0005ff 9125      	LPM  R18,Z+
000600 87ee      	STD  Y+14,R30
000601 87ff      	STD  Y+14+1,R31
000602 c005      	RJMP _0x202009C
                 _0x202009B:
000603 85ae      	LDD  R26,Y+14
000604 85bf      	LDD  R27,Y+14+1
000605 912d      	LD   R18,X+
000606 87ae      	STD  Y+14,R26
000607 87bf      	STD  Y+14+1,R27
                 _0x202009C:
000608 940e 0879 	CALL SUBOPT_0x19
00060a 3050      	CPI  R21,0
00060b f009      	BREQ _0x202009D
00060c 5051      	SUBI R21,LOW(1)
                 _0x202009D:
00060d 5031      	SUBI R19,LOW(1)
00060e cfea      	RJMP _0x2020098
                 _0x202009A:
00060f c051      	RJMP _0x202009E
                 _0x2020097:
                 _0x20200A0:
000610 940e 08c6 	CALL SUBOPT_0x24
000612 940e 0ae5 	CALL __DIVD21U
000614 2f2e      	MOV  R18,R30
000615 302a      	CPI  R18,10
000616 f030      	BRLO _0x20200A2
000617 ff03      	SBRS R16,3
000618 c002      	RJMP _0x20200A3
000619 5c29      	SUBI R18,-LOW(55)
00061a c001      	RJMP _0x20200A4
                 _0x20200A3:
00061b 5a29      	SUBI R18,-LOW(87)
                 _0x20200A4:
00061c c001      	RJMP _0x20200A5
                 _0x20200A2:
00061d 5d20      	SUBI R18,-LOW(48)
                 _0x20200A5:
00061e fd04      	SBRC R16,4
00061f c021      	RJMP _0x20200A7
000620 3321      	CPI  R18,49
000621 f460      	BRSH _0x20200A9
                +
000622 89a8     +LDD R26 , Y + 16
000623 89b9     +LDD R27 , Y + 16 + 1
000624 898a     +LDD R24 , Y + 16 + 2
000625 899b     +LDD R25 , Y + 16 + 3
                 	__GETD2S 16
                +
000626 30a1     +CPI R26 , LOW ( 0x1 )
000627 e0e0     +LDI R30 , HIGH ( 0x1 )
000628 07be     +CPC R27 , R30
000629 e0e0     +LDI R30 , BYTE3 ( 0x1 )
00062a 078e     +CPC R24 , R30
00062b e0e0     +LDI R30 , BYTE4 ( 0x1 )
00062c 079e     +CPC R25 , R30
                 	__CPD2N 0x1
00062d f409      	BRNE _0x20200A8
                 _0x20200A9:
00062e c00b      	RJMP _0x20200AB
                 _0x20200A8:
00062f 1743      	CP   R20,R19
000630 f440      	BRSH _0x2020116
000631 1753      	CP   R21,R19
000632 f010      	BRLO _0x20200AE
000633 ff00      	SBRS R16,0
000634 c001      	RJMP _0x20200AF
                 _0x20200AE:
000635 c010      	RJMP _0x20200AD
                 _0x20200AF:
000636 e220      	LDI  R18,LOW(32)
000637 ff07      	SBRS R16,7
000638 c008      	RJMP _0x20200B0
                 _0x2020116:
000639 e320      	LDI  R18,LOW(48)
                 _0x20200AB:
00063a 6100      	ORI  R16,LOW(16)
00063b ff02      	SBRS R16,2
00063c c004      	RJMP _0x20200B1
00063d 940e 08b4 	CALL SUBOPT_0x23
00063f f009      	BREQ _0x20200B2
000640 5051      	SUBI R21,LOW(1)
                 _0x20200B2:
                 _0x20200B1:
                 _0x20200B0:
                 _0x20200A7:
000641 940e 0879 	CALL SUBOPT_0x19
000643 3050      	CPI  R21,0
000644 f009      	BREQ _0x20200B3
000645 5051      	SUBI R21,LOW(1)
                 _0x20200B3:
                 _0x20200AD:
000646 5031      	SUBI R19,LOW(1)
000647 940e 08c6 	CALL SUBOPT_0x24
000649 940e 0b16 	CALL __MODD21U
00064b 940e 089b 	CALL SUBOPT_0x1E
00064d 89ec      	LDD  R30,Y+20
                +
00064e 89a8     +LDD R26 , Y + 16
00064f 89b9     +LDD R27 , Y + 16 + 1
000650 898a     +LDD R24 , Y + 16 + 2
000651 899b     +LDD R25 , Y + 16 + 3
                 	__GETD2S 16
000652 27ff      	CLR  R31
000653 2766      	CLR  R22
000654 2777      	CLR  R23
000655 940e 0ae5 	CALL __DIVD21U
000657 940e 0809 	CALL SUBOPT_0x8
                +
000659 89e8     +LDD R30 , Y + 16
00065a 89f9     +LDD R31 , Y + 16 + 1
00065b 896a     +LDD R22 , Y + 16 + 2
00065c 897b     +LDD R23 , Y + 16 + 3
                 	__GETD1S 16
00065d 940e 0b56 	CALL __CPD10
00065f f009      	BREQ _0x20200A1
000660 cfaf      	RJMP _0x20200A0
                 _0x20200A1:
                 _0x202009E:
000661 ff00      	SBRS R16,0
000662 c008      	RJMP _0x20200B4
                 _0x20200B5:
000663 3050      	CPI  R21,0
000664 f031      	BREQ _0x20200B7
000665 5051      	SUBI R21,LOW(1)
000666 e2e0      	LDI  R30,LOW(32)
000667 93ea      	ST   -Y,R30
000668 940e 088e 	CALL SUBOPT_0x1C
00066a cff8      	RJMP _0x20200B5
                 _0x20200B7:
                 _0x20200B4:
                 _0x20200B8:
                 _0x2020054:
                 _0x2020114:
00066b e010      	LDI  R17,LOW(0)
                 _0x2020035:
00066c ce0c      	RJMP _0x2020030
                 _0x2020032:
00066d 81ae      	LDD  R26,Y+6
00066e 81bf      	LDD  R27,Y+6+1
00066f 940e 0b26 	CALL __GETW1P
000671 940e 0b61 	CALL __LOADLOCR6
000673 96ef      	ADIW R28,63
000674 966f      	ADIW R28,31
000675 9508      	RET
                 ; .FEND
                 _sprintf:
                 ; .FSTART _sprintf
000676 92ff      	PUSH R15
000677 2ef8      	MOV  R15,R24
000678 9726      	SBIW R28,6
000679 940e 0b5c 	CALL __SAVELOCR4
00067b 940e 08cf 	CALL SUBOPT_0x25
00067d 9730      	SBIW R30,0
00067e f419      	BRNE _0x20200B9
00067f efef      	LDI  R30,LOW(65535)
000680 efff      	LDI  R31,HIGH(65535)
000681 c01d      	RJMP _0x20E0005
                 _0x20200B9:
000682 01de      	MOVW R26,R28
000683 9616      	ADIW R26,6
000684 940e 0abb 	CALL __ADDW2R15
000686 018d      	MOVW R16,R26
000687 940e 08cf 	CALL SUBOPT_0x25
000689 83ee      	STD  Y+6,R30
00068a 83ff      	STD  Y+6+1,R31
00068b e0e0      	LDI  R30,LOW(0)
00068c 87e8      	STD  Y+8,R30
00068d 87e9      	STD  Y+8+1,R30
00068e 01de      	MOVW R26,R28
00068f 961a      	ADIW R26,10
000690 940e 08d6 	CALL SUBOPT_0x26
000692 e4e6      	LDI  R30,LOW(_put_buff_G101)
000693 e0f3      	LDI  R31,HIGH(_put_buff_G101)
000694 93fa      	ST   -Y,R31
000695 93ea      	ST   -Y,R30
000696 01de      	MOVW R26,R28
000697 961a      	ADIW R26,10
000698 ddc3      	RCALL __print_G101
000699 019f      	MOVW R18,R30
00069a 81ae      	LDD  R26,Y+6
00069b 81bf      	LDD  R27,Y+6+1
00069c e0e0      	LDI  R30,LOW(0)
00069d 93ec      	ST   X,R30
00069e 01f9      	MOVW R30,R18
                 _0x20E0005:
00069f 940e 0b63 	CALL __LOADLOCR4
0006a1 962a      	ADIW R28,10
0006a2 90ff      	POP  R15
0006a3 9508      	RET
                 ; .FEND
                 _printf:
                 ; .FSTART _printf
0006a4 92ff      	PUSH R15
0006a5 2ef8      	MOV  R15,R24
0006a6 9726      	SBIW R28,6
0006a7 931a      	ST   -Y,R17
0006a8 930a      	ST   -Y,R16
0006a9 01de      	MOVW R26,R28
0006aa 9614      	ADIW R26,4
0006ab 940e 0abb 	CALL __ADDW2R15
0006ad 018d      	MOVW R16,R26
0006ae e0e0      	LDI  R30,LOW(0)
0006af 83ec      	STD  Y+4,R30
0006b0 83ed      	STD  Y+4+1,R30
0006b1 83ee      	STD  Y+6,R30
0006b2 83ef      	STD  Y+6+1,R30
0006b3 01de      	MOVW R26,R28
0006b4 9618      	ADIW R26,8
0006b5 940e 08d6 	CALL SUBOPT_0x26
0006b7 e3eb      	LDI  R30,LOW(_put_usart_G101)
0006b8 e0f3      	LDI  R31,HIGH(_put_usart_G101)
0006b9 93fa      	ST   -Y,R31
0006ba 93ea      	ST   -Y,R30
0006bb 01de      	MOVW R26,R28
0006bc 9618      	ADIW R26,8
0006bd dd9e      	RCALL __print_G101
0006be 8119      	LDD  R17,Y+1
0006bf 8108      	LDD  R16,Y+0
0006c0 9628      	ADIW R28,8
0006c1 90ff      	POP  R15
0006c2 9508      	RET
                 ; .FEND
                 	#ifndef __SLEEP_DEFINED__
                 	#endif
                 
                 	.CSEG
                 _spi:
                 ; .FSTART _spi
0006c3 93aa      	ST   -Y,R26
0006c4 81e8      	LD   R30,Y
0006c5 b9ef      	OUT  0xF,R30
                 _0x2040003:
0006c6 9b77      	SBIS 0xE,7
0006c7 cffe      	RJMP _0x2040003
0006c8 b1ef      	IN   R30,0xF
                 _0x20E0004:
0006c9 9621      	ADIW R28,1
0006ca 9508      	RET
                 ; .FEND
                 
                 	.CSEG
                 
                 	.CSEG
                 _strcpyf:
                 ; .FSTART _strcpyf
0006cb 93ba      	ST   -Y,R27
0006cc 93aa      	ST   -Y,R26
0006cd 91e9          ld   r30,y+
0006ce 91f9          ld   r31,y+
0006cf 91a9          ld   r26,y+
0006d0 91b9          ld   r27,y+
0006d1 01cd          movw r24,r26
                 strcpyf0:
0006d2 9005      	lpm  r0,z+
0006d3 920d          st   x+,r0
0006d4 2000          tst  r0
0006d5 f7e1          brne strcpyf0
0006d6 01fc          movw r30,r24
0006d7 9508          ret
                 ; .FEND
                 _strlen:
                 ; .FSTART _strlen
0006d8 93ba      	ST   -Y,R27
0006d9 93aa      	ST   -Y,R26
0006da 91a9          ld   r26,y+
0006db 91b9          ld   r27,y+
0006dc 27ee          clr  r30
0006dd 27ff          clr  r31
                 strlen0:
0006de 916d          ld   r22,x+
0006df 2366          tst  r22
0006e0 f011          breq strlen1
0006e1 9631          adiw r30,1
0006e2 cffb          rjmp strlen0
                 strlen1:
0006e3 9508          ret
                 ; .FEND
                 _strlenf:
                 ; .FSTART _strlenf
0006e4 93ba      	ST   -Y,R27
0006e5 93aa      	ST   -Y,R26
0006e6 27aa          clr  r26
0006e7 27bb          clr  r27
0006e8 91e9          ld   r30,y+
0006e9 91f9          ld   r31,y+
                 strlenf0:
0006ea 9005      	lpm  r0,z+
0006eb 2000          tst  r0
0006ec f011          breq strlenf1
0006ed 9611          adiw r26,1
0006ee cffb          rjmp strlenf0
                 strlenf1:
0006ef 01fd          movw r30,r26
0006f0 9508          ret
                 ; .FEND
                 
                 	.CSEG
                 _ftrunc:
                 ; .FSTART _ftrunc
0006f1 940e 0b44 	CALL __PUTPARD2
0006f3 817b         ldd  r23,y+3
0006f4 816a         ldd  r22,y+2
0006f5 81f9         ldd  r31,y+1
0006f6 81e8         ld   r30,y
0006f7 fb77         bst  r23,7
0006f8 0f77         lsl  r23
0006f9 fd67         sbrc r22,7
0006fa 6071         sbr  r23,1
0006fb 2f97         mov  r25,r23
0006fc 579e         subi r25,0x7e
0006fd f081         breq __ftrunc0
0006fe f078         brcs __ftrunc0
0006ff 3198         cpi  r25,24
000700 f490         brsh __ftrunc1
000701 27aa         clr  r26
000702 27bb         clr  r27
000703 2788         clr  r24
                 __ftrunc2:
000704 9408         sec
000705 9587         ror  r24
000706 95b7         ror  r27
000707 95a7         ror  r26
000708 959a         dec  r25
000709 f7d1         brne __ftrunc2
00070a 23ea         and  r30,r26
00070b 23fb         and  r31,r27
00070c 2368         and  r22,r24
00070d c005         rjmp __ftrunc1
                 __ftrunc0:
00070e 94e8         clt
00070f 2777         clr  r23
000710 27ee         clr  r30
000711 27ff         clr  r31
000712 2766         clr  r22
                 __ftrunc1:
000713 776f         cbr  r22,0x80
000714 9576         lsr  r23
000715 f408         brcc __ftrunc3
000716 6860         sbr  r22,0x80
                 __ftrunc3:
000717 f977         bld  r23,7
000718 91a9         ld   r26,y+
000719 91b9         ld   r27,y+
00071a 9189         ld   r24,y+
00071b 9199         ld   r25,y+
00071c 17ea         cp   r30,r26
00071d 07fb         cpc  r31,r27
00071e 0768         cpc  r22,r24
00071f 0779         cpc  r23,r25
000720 fb97         bst  r25,7
000721 9508         ret
                 ; .FEND
                 _floor:
                 ; .FSTART _floor
000722 940e 0b44 	CALL __PUTPARD2
000724 940e 0b35 	CALL __GETD2S0
000726 940e 06f1 	CALL _ftrunc
000728 940e 0b3a 	CALL __PUTD1S0
00072a f419          brne __floor1
                 __floor0:
00072b 940e 0b30 	CALL __GETD1S0
00072d c009      	RJMP _0x20E0003
                 __floor1:
00072e f7e6          brtc __floor0
00072f 940e 0b30 	CALL __GETD1S0
                +
000731 e0a0     +LDI R26 , LOW ( 0x3F800000 )
000732 e0b0     +LDI R27 , HIGH ( 0x3F800000 )
000733 e880     +LDI R24 , BYTE3 ( 0x3F800000 )
000734 e39f     +LDI R25 , BYTE4 ( 0x3F800000 )
                 	__GETD2N 0x3F800000
000735 940e 09b1 	CALL __SUBF12
                 _0x20E0003:
000737 9624      	ADIW R28,4
000738 9508      	RET
                 ; .FEND
                 
                 	.CSEG
                 _ftoa:
                 ; .FSTART _ftoa
000739 d0e8      	RCALL SUBOPT_0xC
00073a e0e0      	LDI  R30,LOW(0)
00073b 83ea      	STD  Y+2,R30
00073c e3ef      	LDI  R30,LOW(63)
00073d 83eb      	STD  Y+3,R30
00073e 931a      	ST   -Y,R17
00073f 930a      	ST   -Y,R16
000740 85eb      	LDD  R30,Y+11
000741 85fc      	LDD  R31,Y+11+1
000742 3fef      	CPI  R30,LOW(0xFFFF)
000743 efaf      	LDI  R26,HIGH(0xFFFF)
000744 07fa      	CPC  R31,R26
000745 f431      	BRNE _0x20C000D
000746 d198      	RCALL SUBOPT_0x27
                +
000747 e7a8     +LDI R26 , LOW ( 2 * _0x20C0000 + ( 0 ) )
000748 e0b1     +LDI R27 , HIGH ( 2 * _0x20C0000 + ( 0 ) )
                 	__POINTW2FN _0x20C0000,0
000749 940e 06cb 	CALL _strcpyf
00074b c08a      	RJMP _0x20E0002
                 _0x20C000D:
00074c 3fef      	CPI  R30,LOW(0x7FFF)
00074d e7af      	LDI  R26,HIGH(0x7FFF)
00074e 07fa      	CPC  R31,R26
00074f f431      	BRNE _0x20C000C
000750 d18e      	RCALL SUBOPT_0x27
                +
000751 e7a9     +LDI R26 , LOW ( 2 * _0x20C0000 + ( 1 ) )
000752 e0b1     +LDI R27 , HIGH ( 2 * _0x20C0000 + ( 1 ) )
                 	__POINTW2FN _0x20C0000,1
000753 940e 06cb 	CALL _strcpyf
000755 c080      	RJMP _0x20E0002
                 _0x20C000C:
000756 85ac      	LDD  R26,Y+12
000757 23aa      	TST  R26
000758 f452      	BRPL _0x20C000F
                +
000759 85e9     +LDD R30 , Y + 9
00075a 85fa     +LDD R31 , Y + 9 + 1
00075b 856b     +LDD R22 , Y + 9 + 2
00075c 857c     +LDD R23 , Y + 9 + 3
                 	__GETD1S 9
00075d 940e 0912 	CALL __ANEGF1
00075f d184      	RCALL SUBOPT_0x28
000760 d188      	RCALL SUBOPT_0x29
000761 e2ed      	LDI  R30,LOW(45)
000762 93ec      	ST   X,R30
                 _0x20C000F:
000763 85a8      	LDD  R26,Y+8
000764 30a7      	CPI  R26,LOW(0x7)
000765 f010      	BRLO _0x20C0010
000766 e0e6      	LDI  R30,LOW(6)
000767 87e8      	STD  Y+8,R30
                 _0x20C0010:
000768 8518      	LDD  R17,Y+8
                 _0x20C0011:
000769 2fe1      	MOV  R30,R17
00076a 5011      	SUBI R17,1
00076b 30e0      	CPI  R30,0
00076c f021      	BREQ _0x20C0013
00076d d182      	RCALL SUBOPT_0x2A
00076e d0ec      	RCALL SUBOPT_0x14
00076f d185      	RCALL SUBOPT_0x2B
000770 cff8      	RJMP _0x20C0011
                 _0x20C0013:
000771 d188      	RCALL SUBOPT_0x2C
000772 940e 09b8 	CALL __ADDF12
000774 d16f      	RCALL SUBOPT_0x28
000775 e010      	LDI  R17,LOW(0)
                +
000776 e0e0     +LDI R30 , LOW ( 0x3F800000 )
000777 e0f0     +LDI R31 , HIGH ( 0x3F800000 )
000778 e860     +LDI R22 , BYTE3 ( 0x3F800000 )
000779 e37f     +LDI R23 , BYTE4 ( 0x3F800000 )
                 	__GETD1N 0x3F800000
00077a d17a      	RCALL SUBOPT_0x2B
                 _0x20C0014:
00077b d17e      	RCALL SUBOPT_0x2C
00077c 940e 0a9b 	CALL __CMPF12
00077e f068      	BRLO _0x20C0016
00077f d170      	RCALL SUBOPT_0x2A
000780 d081      	RCALL SUBOPT_0x7
000781 d173      	RCALL SUBOPT_0x2B
000782 5f1f      	SUBI R17,-LOW(1)
000783 3217      	CPI  R17,39
000784 f030      	BRLO _0x20C0017
000785 d159      	RCALL SUBOPT_0x27
                +
000786 e7ad     +LDI R26 , LOW ( 2 * _0x20C0000 + ( 5 ) )
000787 e0b1     +LDI R27 , HIGH ( 2 * _0x20C0000 + ( 5 ) )
                 	__POINTW2FN _0x20C0000,5
000788 940e 06cb 	CALL _strcpyf
00078a c04b      	RJMP _0x20E0002
                 _0x20C0017:
00078b cfef      	RJMP _0x20C0014
                 _0x20C0016:
00078c 3010      	CPI  R17,0
00078d f421      	BRNE _0x20C0018
00078e d15a      	RCALL SUBOPT_0x29
00078f e3e0      	LDI  R30,LOW(48)
000790 93ec      	ST   X,R30
000791 c020      	RJMP _0x20C0019
                 _0x20C0018:
                 _0x20C001A:
000792 2fe1      	MOV  R30,R17
000793 5011      	SUBI R17,1
000794 30e0      	CPI  R30,0
000795 f0e1      	BREQ _0x20C001C
000796 d159      	RCALL SUBOPT_0x2A
000797 d0c3      	RCALL SUBOPT_0x14
000798 d0bb      	RCALL SUBOPT_0x13
000799 01df      	MOVW R26,R30
00079a 01cb      	MOVW R24,R22
00079b 940e 0722 	CALL _floor
00079d d157      	RCALL SUBOPT_0x2B
00079e d15b      	RCALL SUBOPT_0x2C
00079f 940e 0a56 	CALL __DIVF21
0007a1 940e 0945 	CALL __CFD1U
0007a3 2f0e      	MOV  R16,R30
0007a4 d144      	RCALL SUBOPT_0x29
0007a5 d0c3      	RCALL SUBOPT_0x16
0007a6 e0f0      	LDI  R31,0
0007a7 d148      	RCALL SUBOPT_0x2A
0007a8 940e 0acd 	CALL __CWD1
0007aa 940e 097e 	CALL __CDF1
0007ac 940e 0a08 	CALL __MULF12
0007ae d154      	RCALL SUBOPT_0x2D
0007af d0be      	RCALL SUBOPT_0x17
0007b0 d133      	RCALL SUBOPT_0x28
0007b1 cfe0      	RJMP _0x20C001A
                 _0x20C001C:
                 _0x20C0019:
0007b2 85e8      	LDD  R30,Y+8
0007b3 30e0      	CPI  R30,0
0007b4 f0e9      	BREQ _0x20E0001
0007b5 d133      	RCALL SUBOPT_0x29
0007b6 e2ee      	LDI  R30,LOW(46)
0007b7 93ec      	ST   X,R30
                 _0x20C001E:
0007b8 85e8      	LDD  R30,Y+8
0007b9 50e1      	SUBI R30,LOW(1)
0007ba 87e8      	STD  Y+8,R30
0007bb 5fef      	SUBI R30,-LOW(1)
0007bc f0a9      	BREQ _0x20C0020
0007bd d145      	RCALL SUBOPT_0x2D
0007be d043      	RCALL SUBOPT_0x7
0007bf d124      	RCALL SUBOPT_0x28
                +
0007c0 85e9     +LDD R30 , Y + 9
0007c1 85fa     +LDD R31 , Y + 9 + 1
0007c2 856b     +LDD R22 , Y + 9 + 2
0007c3 857c     +LDD R23 , Y + 9 + 3
                 	__GETD1S 9
0007c4 940e 0945 	CALL __CFD1U
0007c6 2f0e      	MOV  R16,R30
0007c7 d121      	RCALL SUBOPT_0x29
0007c8 d0a0      	RCALL SUBOPT_0x16
0007c9 e0f0      	LDI  R31,0
0007ca d138      	RCALL SUBOPT_0x2D
0007cb 940e 0acd 	CALL __CWD1
0007cd 940e 097e 	CALL __CDF1
0007cf d09e      	RCALL SUBOPT_0x17
0007d0 d113      	RCALL SUBOPT_0x28
0007d1 cfe6      	RJMP _0x20C001E
                 _0x20C0020:
                 _0x20E0001:
0007d2 81ae      	LDD  R26,Y+6
0007d3 81bf      	LDD  R27,Y+6+1
0007d4 e0e0      	LDI  R30,LOW(0)
0007d5 93ec      	ST   X,R30
                 _0x20E0002:
0007d6 8119      	LDD  R17,Y+1
0007d7 8108      	LDD  R16,Y+0
0007d8 962d      	ADIW R28,13
0007d9 9508      	RET
                 ; .FEND
                 
                 	.DSEG
                 
                 	.CSEG
                 
                 	.DSEG
                 _rx_buffer:
000160           	.BYTE 0x10
                 _tx_buffer:
000170           	.BYTE 0x10
                 __base_y_G100:
000180           	.BYTE 0x4
                 __lcd_x:
000184           	.BYTE 0x1
                 __lcd_y:
000185           	.BYTE 0x1
                 __lcd_maxx:
000186           	.BYTE 0x1
                 __seed_G106:
000187           	.BYTE 0x4
                 
                 	.CSEG
                 ;OPTIMIZER ADDED SUBROUTINE, CALLED 4 TIMES, CODE SIZE REDUCTION:3 WORDS
                 SUBOPT_0x0:
0007da 93ea      	ST   -Y,R30
0007db 93fa      	ST   -Y,R31
0007dc b7ef      	IN   R30,SREG
0007dd 93ea      	ST   -Y,R30
0007de 9508      	RET
                 
                 ;OPTIMIZER ADDED SUBROUTINE, CALLED 3 TIMES, CODE SIZE REDUCTION:1 WORDS
                 SUBOPT_0x1:
0007df 93ea      	ST   -Y,R30
0007e0 e0a0      	LDI  R26,LOW(0)
0007e1 940c 02a9 	JMP  _lcd_gotoxy
                 
                 ;OPTIMIZER ADDED SUBROUTINE, CALLED 4 TIMES, CODE SIZE REDUCTION:9 WORDS
                 SUBOPT_0x2:
0007e3 93fa      	ST   -Y,R31
0007e4 93ea      	ST   -Y,R30
0007e5 e080      	LDI  R24,0
0007e6 940e 06a4 	CALL _printf
0007e8 9622      	ADIW R28,2
0007e9 9508      	RET
                 
                 ;OPTIMIZER ADDED SUBROUTINE, CALLED 3 TIMES, CODE SIZE REDUCTION:1 WORDS
                 SUBOPT_0x3:
0007ea 93ea      	ST   -Y,R30
0007eb e0a1      	LDI  R26,LOW(1)
0007ec 940c 02a9 	JMP  _lcd_gotoxy
                 
                 ;OPTIMIZER ADDED SUBROUTINE, CALLED 4 TIMES, CODE SIZE REDUCTION:15 WORDS
                 SUBOPT_0x4:
                +
0007ee e7aa     +LDI R26 , LOW ( 2 * _0x0 + ( 26 ) )
0007ef e0b0     +LDI R27 , HIGH ( 2 * _0x0 + ( 26 ) )
                 	__POINTW2FN _0x0,26
0007f0 940e 02fa 	CALL _lcd_putsf
0007f2 efa4      	LDI  R26,LOW(500)
0007f3 e0b1      	LDI  R27,HIGH(500)
0007f4 940c 0908 	JMP  _delay_ms
                 
                 ;OPTIMIZER ADDED SUBROUTINE, CALLED 9 TIMES, CODE SIZE REDUCTION:45 WORDS
                 SUBOPT_0x5:
                +
0007f6 e7aa     +LDI R26 , LOW ( 2 * _0x0 + ( 26 ) )
0007f7 e0b0     +LDI R27 , HIGH ( 2 * _0x0 + ( 26 ) )
                 	__POINTW2FN _0x0,26
0007f8 940e 02fa 	CALL _lcd_putsf
0007fa e6a4      	LDI  R26,LOW(100)
0007fb e0b0      	LDI  R27,0
0007fc 940c 0908 	JMP  _delay_ms
                 
                 ;OPTIMIZER ADDED SUBROUTINE, CALLED 3 TIMES, CODE SIZE REDUCTION:1 WORDS
                 SUBOPT_0x6:
                +
0007fe e7aa     +LDI R26 , LOW ( 2 * _0x0 + ( 26 ) )
0007ff e0b0     +LDI R27 , HIGH ( 2 * _0x0 + ( 26 ) )
                 	__POINTW2FN _0x0,26
000800 940c 02fa 	JMP  _lcd_putsf
                 
                 ;OPTIMIZER ADDED SUBROUTINE, CALLED 8 TIMES, CODE SIZE REDUCTION:25 WORDS
                 SUBOPT_0x7:
                +
000802 e0e0     +LDI R30 , LOW ( 0x41200000 )
000803 e0f0     +LDI R31 , HIGH ( 0x41200000 )
000804 e260     +LDI R22 , BYTE3 ( 0x41200000 )
000805 e471     +LDI R23 , BYTE4 ( 0x41200000 )
                 	__GETD1N 0x41200000
000806 940e 0a08 	CALL __MULF12
000808 9508      	RET
                 
                 ;OPTIMIZER ADDED SUBROUTINE, CALLED 6 TIMES, CODE SIZE REDUCTION:7 WORDS
                 SUBOPT_0x8:
                +
000809 8be8     +STD Y + 16 , R30
00080a 8bf9     +STD Y + 16 + 1 , R31
00080b 8b6a     +STD Y + 16 + 2 , R22
00080c 8b7b     +STD Y + 16 + 3 , R23
                 	__PUTD1S 16
00080d 9508      	RET
                 
                 ;OPTIMIZER ADDED SUBROUTINE, CALLED 2 TIMES, CODE SIZE REDUCTION:1 WORDS
                 SUBOPT_0x9:
00080e 940e 029c 	CALL __lcd_write_data
000810 e0a3      	LDI  R26,LOW(3)
000811 e0b0      	LDI  R27,0
000812 940c 0908 	JMP  _delay_ms
                 
                 ;OPTIMIZER ADDED SUBROUTINE, CALLED 3 TIMES, CODE SIZE REDUCTION:7 WORDS
                 SUBOPT_0xA:
000814 e3a0      	LDI  R26,LOW(48)
000815 940e 0287 	CALL __lcd_write_nibble_G100
                +
000817 ec88     +LDI R24 , LOW ( 200 )
000818 e090     +LDI R25 , HIGH ( 200 )
                +__DELAY_USW_LOOP :
000819 9701     +SBIW R24 , 1
00081a f7f1     +BRNE __DELAY_USW_LOOP
                 	__DELAY_USW 200
00081b 9508      	RET
                 
                 ;OPTIMIZER ADDED SUBROUTINE, CALLED 4 TIMES, CODE SIZE REDUCTION:6 WORDS
                 SUBOPT_0xB:
00081c 91ed      	LD   R30,X+
00081d 91fd      	LD   R31,X+
00081e 9631      	ADIW R30,1
00081f 93fe      	ST   -X,R31
000820 93ee      	ST   -X,R30
000821 9508      	RET
                 
                 ;OPTIMIZER ADDED SUBROUTINE, CALLED 2 TIMES, CODE SIZE REDUCTION:2 WORDS
                 SUBOPT_0xC:
000822 93ba      	ST   -Y,R27
000823 93aa      	ST   -Y,R26
000824 9724      	SBIW R28,4
000825 e0e0      	LDI  R30,LOW(0)
000826 83e8      	ST   Y,R30
000827 83e9      	STD  Y+1,R30
000828 9508      	RET
                 
                 ;OPTIMIZER ADDED SUBROUTINE, CALLED 4 TIMES, CODE SIZE REDUCTION:9 WORDS
                 SUBOPT_0xD:
                +
000829 81ac     +LDD R26 , Y + 4
00082a 81bd     +LDD R27 , Y + 4 + 1
00082b 818e     +LDD R24 , Y + 4 + 2
00082c 819f     +LDD R25 , Y + 4 + 3
                 	__GETD2S 4
00082d cfd4      	RJMP SUBOPT_0x7
                 
                 ;OPTIMIZER ADDED SUBROUTINE, CALLED 5 TIMES, CODE SIZE REDUCTION:5 WORDS
                 SUBOPT_0xE:
                +
00082e 83ec     +STD Y + 4 , R30
00082f 83fd     +STD Y + 4 + 1 , R31
000830 836e     +STD Y + 4 + 2 , R22
000831 837f     +STD Y + 4 + 3 , R23
                 	__PUTD1S 4
000832 9508      	RET
                 
                 ;OPTIMIZER ADDED SUBROUTINE, CALLED 4 TIMES, CODE SIZE REDUCTION:21 WORDS
                 SUBOPT_0xF:
                +
000833 81ec     +LDD R30 , Y + 4
000834 81fd     +LDD R31 , Y + 4 + 1
000835 816e     +LDD R22 , Y + 4 + 2
000836 817f     +LDD R23 , Y + 4 + 3
                 	__GETD1S 4
                +
000837 85ac     +LDD R26 , Y + 12
000838 85bd     +LDD R27 , Y + 12 + 1
000839 858e     +LDD R24 , Y + 12 + 2
00083a 859f     +LDD R25 , Y + 12 + 3
                 	__GETD2S 12
00083b 940e 0a9b 	CALL __CMPF12
00083d 9508      	RET
                 
                 ;OPTIMIZER ADDED SUBROUTINE, CALLED 5 TIMES, CODE SIZE REDUCTION:5 WORDS
                 SUBOPT_0x10:
                +
00083e 85ac     +LDD R26 , Y + 12
00083f 85bd     +LDD R27 , Y + 12 + 1
000840 858e     +LDD R24 , Y + 12 + 2
000841 859f     +LDD R25 , Y + 12 + 3
                 	__GETD2S 12
000842 9508      	RET
                 
                 ;OPTIMIZER ADDED SUBROUTINE, CALLED 2 TIMES, CODE SIZE REDUCTION:6 WORDS
                 SUBOPT_0x11:
                +
000843 eced     +LDI R30 , LOW ( 0x3DCCCCCD )
000844 ecfc     +LDI R31 , HIGH ( 0x3DCCCCCD )
000845 ec6c     +LDI R22 , BYTE3 ( 0x3DCCCCCD )
000846 e37d     +LDI R23 , BYTE4 ( 0x3DCCCCCD )
                 	__GETD1N 0x3DCCCCCD
000847 940e 0a08 	CALL __MULF12
                +
000849 87ec     +STD Y + 12 , R30
00084a 87fd     +STD Y + 12 + 1 , R31
00084b 876e     +STD Y + 12 + 2 , R22
00084c 877f     +STD Y + 12 + 3 , R23
                 	__PUTD1S 12
00084d 5f3f      	SUBI R19,-LOW(1)
00084e 9508      	RET
                 
                 ;OPTIMIZER ADDED SUBROUTINE, CALLED 3 TIMES, CODE SIZE REDUCTION:1 WORDS
                 SUBOPT_0x12:
                +
00084f 87ec     +STD Y + 12 , R30
000850 87fd     +STD Y + 12 + 1 , R31
000851 876e     +STD Y + 12 + 2 , R22
000852 877f     +STD Y + 12 + 3 , R23
                 	__PUTD1S 12
000853 9508      	RET
                 
                 ;OPTIMIZER ADDED SUBROUTINE, CALLED 3 TIMES, CODE SIZE REDUCTION:5 WORDS
                 SUBOPT_0x13:
                +
000854 e0a0     +LDI R26 , LOW ( 0x3F000000 )
000855 e0b0     +LDI R27 , HIGH ( 0x3F000000 )
000856 e080     +LDI R24 , BYTE3 ( 0x3F000000 )
000857 e39f     +LDI R25 , BYTE4 ( 0x3F000000 )
                 	__GETD2N 0x3F000000
000858 940e 09b8 	CALL __ADDF12
00085a 9508      	RET
                 
                 ;OPTIMIZER ADDED SUBROUTINE, CALLED 3 TIMES, CODE SIZE REDUCTION:5 WORDS
                 SUBOPT_0x14:
                +
00085b eced     +LDI R30 , LOW ( 0x3DCCCCCD )
00085c ecfc     +LDI R31 , HIGH ( 0x3DCCCCCD )
00085d ec6c     +LDI R22 , BYTE3 ( 0x3DCCCCCD )
00085e e37d     +LDI R23 , BYTE4 ( 0x3DCCCCCD )
                 	__GETD1N 0x3DCCCCCD
00085f 940e 0a08 	CALL __MULF12
000861 9508      	RET
                 
                 ;OPTIMIZER ADDED SUBROUTINE, CALLED 2 TIMES, CODE SIZE REDUCTION:1 WORDS
                 SUBOPT_0x15:
000862 85a8      	LDD  R26,Y+8
000863 85b9      	LDD  R27,Y+8+1
000864 9611      	ADIW R26,1
000865 87a8      	STD  Y+8,R26
000866 87b9      	STD  Y+8+1,R27
000867 9711      	SBIW R26,1
000868 9508      	RET
                 
                 ;OPTIMIZER ADDED SUBROUTINE, CALLED 3 TIMES, CODE SIZE REDUCTION:1 WORDS
                 SUBOPT_0x16:
000869 2fe0      	MOV  R30,R16
00086a 5de0      	SUBI R30,-LOW(48)
00086b 93ec      	ST   X,R30
00086c 2fe0      	MOV  R30,R16
00086d 9508      	RET
                 
                 ;OPTIMIZER ADDED SUBROUTINE, CALLED 3 TIMES, CODE SIZE REDUCTION:1 WORDS
                 SUBOPT_0x17:
00086e 940e 0b49 	CALL __SWAPD12
000870 940e 09b1 	CALL __SUBF12
000872 9508      	RET
                 
                 ;OPTIMIZER ADDED SUBROUTINE, CALLED 4 TIMES, CODE SIZE REDUCTION:6 WORDS
                 SUBOPT_0x18:
000873 85e8      	LDD  R30,Y+8
000874 85f9      	LDD  R31,Y+8+1
000875 9631      	ADIW R30,1
000876 87e8      	STD  Y+8,R30
000877 87f9      	STD  Y+8+1,R31
000878 9508      	RET
                 
                 ;OPTIMIZER ADDED SUBROUTINE, CALLED 5 TIMES, CODE SIZE REDUCTION:13 WORDS
                 SUBOPT_0x19:
000879 932a      	ST   -Y,R18
00087a 81af      	LDD  R26,Y+7
00087b 85b8      	LDD  R27,Y+7+1
00087c 85e9      	LDD  R30,Y+9
00087d 85fa      	LDD  R31,Y+9+1
00087e 9509      	ICALL
00087f 9508      	RET
                 
                 ;OPTIMIZER ADDED SUBROUTINE, CALLED 8 TIMES, CODE SIZE REDUCTION:25 WORDS
                 SUBOPT_0x1A:
                +
000880 01fe     +MOVW R30 , R28
000881 5ae6     +SUBI R30 , LOW ( - 90 )
000882 4fff     +SBCI R31 , HIGH ( - 90 )
000883 9001     +LD R0 , Z +
000884 81f0     +LD R31 , Z
000885 2de0     +MOV R30 , R0
                 	__GETW1SX 90
000886 9508      	RET
                 
                 ;OPTIMIZER ADDED SUBROUTINE, CALLED 7 TIMES, CODE SIZE REDUCTION:21 WORDS
                 SUBOPT_0x1B:
000887 9734      	SBIW R30,4
                +
000888 01de     +MOVW R26 , R28
000889 5aa6     +SUBI R26 , LOW ( - 90 )
00088a 4fbf     +SBCI R27 , HIGH ( - 90 )
00088b 93ed     +ST X + , R30
00088c 93fc     +ST X , R31
                 	__PUTW1SX 90
00088d 9508      	RET
                 
                 ;OPTIMIZER ADDED SUBROUTINE, CALLED 4 TIMES, CODE SIZE REDUCTION:6 WORDS
                 SUBOPT_0x1C:
00088e 81af      	LDD  R26,Y+7
00088f 85b8      	LDD  R27,Y+7+1
000890 85e9      	LDD  R30,Y+9
000891 85fa      	LDD  R31,Y+9+1
000892 9509      	ICALL
000893 9508      	RET
                 
                 ;OPTIMIZER ADDED SUBROUTINE, CALLED 6 TIMES, CODE SIZE REDUCTION:17 WORDS
                 SUBOPT_0x1D:
                +
000894 01de     +MOVW R26 , R28
000895 5aa6     +SUBI R26 , LOW ( - 90 )
000896 4fbf     +SBCI R27 , HIGH ( - 90 )
000897 900d     +LD R0 , X +
000898 91bc     +LD R27 , X
000899 2da0     +MOV R26 , R0
                 	__GETW2SX 90
00089a 9508      	RET
                 
                 ;OPTIMIZER ADDED SUBROUTINE, CALLED 4 TIMES, CODE SIZE REDUCTION:3 WORDS
                 SUBOPT_0x1E:
                +
00089b 87ea     +STD Y + 10 , R30
00089c 87fb     +STD Y + 10 + 1 , R31
00089d 876c     +STD Y + 10 + 2 , R22
00089e 877d     +STD Y + 10 + 3 , R23
                 	__PUTD1S 10
00089f 9508      	RET
                 
                 ;OPTIMIZER ADDED SUBROUTINE, CALLED 6 TIMES, CODE SIZE REDUCTION:7 WORDS
                 SUBOPT_0x1F:
0008a0 dfdf      	RCALL SUBOPT_0x1A
0008a1 cfe5      	RJMP SUBOPT_0x1B
                 
                 ;OPTIMIZER ADDED SUBROUTINE, CALLED 4 TIMES, CODE SIZE REDUCTION:3 WORDS
                 SUBOPT_0x20:
                +
0008a2 85ea     +LDD R30 , Y + 10
0008a3 85fb     +LDD R31 , Y + 10 + 1
0008a4 856c     +LDD R22 , Y + 10 + 2
0008a5 857d     +LDD R23 , Y + 10 + 3
                 	__GETD1S 10
0008a6 9508      	RET
                 
                 ;OPTIMIZER ADDED SUBROUTINE, CALLED 2 TIMES, CODE SIZE REDUCTION:2 WORDS
                 SUBOPT_0x21:
0008a7 87ee      	STD  Y+14,R30
0008a8 87ff      	STD  Y+14+1,R31
0008a9 85ae      	LDD  R26,Y+14
0008aa 85bf      	LDD  R27,Y+14+1
0008ab 940e 06d8 	CALL _strlen
0008ad 2f1e      	MOV  R17,R30
0008ae 9508      	RET
                 
                 ;OPTIMIZER ADDED SUBROUTINE, CALLED 4 TIMES, CODE SIZE REDUCTION:6 WORDS
                 SUBOPT_0x22:
0008af dfe4      	RCALL SUBOPT_0x1D
0008b0 9614      	ADIW R26,4
0008b1 940e 0b26 	CALL __GETW1P
0008b3 9508      	RET
                 
                 ;OPTIMIZER ADDED SUBROUTINE, CALLED 2 TIMES, CODE SIZE REDUCTION:12 WORDS
                 SUBOPT_0x23:
0008b4 7f0b      	ANDI R16,LOW(251)
0008b5 89ed      	LDD  R30,Y+21
0008b6 93ea      	ST   -Y,R30
                +
0008b7 01de     +MOVW R26 , R28
0008b8 5aa9     +SUBI R26 , LOW ( - 87 )
0008b9 4fbf     +SBCI R27 , HIGH ( - 87 )
0008ba 900d     +LD R0 , X +
0008bb 91bc     +LD R27 , X
0008bc 2da0     +MOV R26 , R0
                 	__GETW2SX 87
                +
0008bd 01fe     +MOVW R30 , R28
0008be 5ae7     +SUBI R30 , LOW ( - 89 )
0008bf 4fff     +SBCI R31 , HIGH ( - 89 )
0008c0 9001     +LD R0 , Z +
0008c1 81f0     +LD R31 , Z
0008c2 2de0     +MOV R30 , R0
                 	__GETW1SX 89
0008c3 9509      	ICALL
0008c4 3050      	CPI  R21,0
0008c5 9508      	RET
                 
                 ;OPTIMIZER ADDED SUBROUTINE, CALLED 2 TIMES, CODE SIZE REDUCTION:3 WORDS
                 SUBOPT_0x24:
                +
0008c6 89e8     +LDD R30 , Y + 16
0008c7 89f9     +LDD R31 , Y + 16 + 1
0008c8 896a     +LDD R22 , Y + 16 + 2
0008c9 897b     +LDD R23 , Y + 16 + 3
                 	__GETD1S 16
                +
0008ca 85aa     +LDD R26 , Y + 10
0008cb 85bb     +LDD R27 , Y + 10 + 1
0008cc 858c     +LDD R24 , Y + 10 + 2
0008cd 859d     +LDD R25 , Y + 10 + 3
                 	__GETD2S 10
0008ce 9508      	RET
                 
                 ;OPTIMIZER ADDED SUBROUTINE, CALLED 2 TIMES, CODE SIZE REDUCTION:1 WORDS
                 SUBOPT_0x25:
0008cf 01de      	MOVW R26,R28
0008d0 961c      	ADIW R26,12
0008d1 940e 0abb 	CALL __ADDW2R15
0008d3 940e 0b26 	CALL __GETW1P
0008d5 9508      	RET
                 
                 ;OPTIMIZER ADDED SUBROUTINE, CALLED 2 TIMES, CODE SIZE REDUCTION:3 WORDS
                 SUBOPT_0x26:
0008d6 940e 0abb 	CALL __ADDW2R15
0008d8 940e 0b26 	CALL __GETW1P
0008da 93fa      	ST   -Y,R31
0008db 93ea      	ST   -Y,R30
0008dc 931a      	ST   -Y,R17
0008dd 930a      	ST   -Y,R16
0008de 9508      	RET
                 
                 ;OPTIMIZER ADDED SUBROUTINE, CALLED 3 TIMES, CODE SIZE REDUCTION:1 WORDS
                 SUBOPT_0x27:
0008df 81ee      	LDD  R30,Y+6
0008e0 81ff      	LDD  R31,Y+6+1
0008e1 93fa      	ST   -Y,R31
0008e2 93ea      	ST   -Y,R30
0008e3 9508      	RET
                 
                 ;OPTIMIZER ADDED SUBROUTINE, CALLED 5 TIMES, CODE SIZE REDUCTION:5 WORDS
                 SUBOPT_0x28:
                +
0008e4 87e9     +STD Y + 9 , R30
0008e5 87fa     +STD Y + 9 + 1 , R31
0008e6 876b     +STD Y + 9 + 2 , R22
0008e7 877c     +STD Y + 9 + 3 , R23
                 	__PUTD1S 9
0008e8 9508      	RET
                 
                 ;OPTIMIZER ADDED SUBROUTINE, CALLED 5 TIMES, CODE SIZE REDUCTION:13 WORDS
                 SUBOPT_0x29:
0008e9 81ae      	LDD  R26,Y+6
0008ea 81bf      	LDD  R27,Y+6+1
0008eb 9611      	ADIW R26,1
0008ec 83ae      	STD  Y+6,R26
0008ed 83bf      	STD  Y+6+1,R27
0008ee 9711      	SBIW R26,1
0008ef 9508      	RET
                 
                 ;OPTIMIZER ADDED SUBROUTINE, CALLED 4 TIMES, CODE SIZE REDUCTION:3 WORDS
                 SUBOPT_0x2A:
                +
0008f0 81aa     +LDD R26 , Y + 2
0008f1 81bb     +LDD R27 , Y + 2 + 1
0008f2 818c     +LDD R24 , Y + 2 + 2
0008f3 819d     +LDD R25 , Y + 2 + 3
                 	__GETD2S 2
0008f4 9508      	RET
                 
                 ;OPTIMIZER ADDED SUBROUTINE, CALLED 4 TIMES, CODE SIZE REDUCTION:3 WORDS
                 SUBOPT_0x2B:
                +
0008f5 83ea     +STD Y + 2 , R30
0008f6 83fb     +STD Y + 2 + 1 , R31
0008f7 836c     +STD Y + 2 + 2 , R22
0008f8 837d     +STD Y + 2 + 3 , R23
                 	__PUTD1S 2
0008f9 9508      	RET
                 
                 ;OPTIMIZER ADDED SUBROUTINE, CALLED 3 TIMES, CODE SIZE REDUCTION:9 WORDS
                 SUBOPT_0x2C:
                +
0008fa 81ea     +LDD R30 , Y + 2
0008fb 81fb     +LDD R31 , Y + 2 + 1
0008fc 816c     +LDD R22 , Y + 2 + 2
0008fd 817d     +LDD R23 , Y + 2 + 3
                 	__GETD1S 2
                +
0008fe 85a9     +LDD R26 , Y + 9
0008ff 85ba     +LDD R27 , Y + 9 + 1
000900 858b     +LDD R24 , Y + 9 + 2
000901 859c     +LDD R25 , Y + 9 + 3
                 	__GETD2S 9
000902 9508      	RET
                 
                 ;OPTIMIZER ADDED SUBROUTINE, CALLED 3 TIMES, CODE SIZE REDUCTION:1 WORDS
                 SUBOPT_0x2D:
                +
000903 85a9     +LDD R26 , Y + 9
000904 85ba     +LDD R27 , Y + 9 + 1
000905 858b     +LDD R24 , Y + 9 + 2
000906 859c     +LDD R25 , Y + 9 + 3
                 	__GETD2S 9
000907 9508      	RET
                 
                 
                 	.CSEG
                 _delay_ms:
000908 9610      	adiw r26,0
000909 f039      	breq __delay_ms1
                 __delay_ms0:
                +
00090a ed80     +LDI R24 , LOW ( 0x7D0 )
00090b e097     +LDI R25 , HIGH ( 0x7D0 )
                +__DELAY_USW_LOOP :
00090c 9701     +SBIW R24 , 1
00090d f7f1     +BRNE __DELAY_USW_LOOP
                 	__DELAY_USW 0x7D0
00090e 95a8      	wdr
00090f 9711      	sbiw r26,1
000910 f7c9      	brne __delay_ms0
                 __delay_ms1:
000911 9508      	ret
                 
                 __ANEGF1:
000912 9730      	SBIW R30,0
000913 4060      	SBCI R22,0
000914 4070      	SBCI R23,0
000915 f009      	BREQ __ANEGF10
000916 5870      	SUBI R23,0x80
                 __ANEGF10:
000917 9508      	RET
                 
                 __ROUND_REPACK:
000918 2355      	TST  R21
000919 f442      	BRPL __REPACK
00091a 3850      	CPI  R21,0x80
00091b f411      	BRNE __ROUND_REPACK0
00091c ffe0      	SBRS R30,0
00091d c004      	RJMP __REPACK
                 __ROUND_REPACK0:
00091e 9631      	ADIW R30,1
00091f 1f69      	ADC  R22,R25
000920 1f79      	ADC  R23,R25
000921 f06b      	BRVS __REPACK1
                 
                 __REPACK:
000922 e850      	LDI  R21,0x80
000923 2757      	EOR  R21,R23
000924 f411      	BRNE __REPACK0
000925 935f      	PUSH R21
000926 c0cf      	RJMP __ZERORES
                 __REPACK0:
000927 3f5f      	CPI  R21,0xFF
000928 f031      	BREQ __REPACK1
000929 0f66      	LSL  R22
00092a 0c00      	LSL  R0
00092b 9557      	ROR  R21
00092c 9567      	ROR  R22
00092d 2f75      	MOV  R23,R21
00092e 9508      	RET
                 __REPACK1:
00092f 935f      	PUSH R21
000930 2000      	TST  R0
000931 f00a      	BRMI __REPACK2
000932 c0cf      	RJMP __MAXRES
                 __REPACK2:
000933 c0c8      	RJMP __MINRES
                 
                 __UNPACK:
000934 e850      	LDI  R21,0x80
000935 2e19      	MOV  R1,R25
000936 2215      	AND  R1,R21
000937 0f88      	LSL  R24
000938 1f99      	ROL  R25
000939 2795      	EOR  R25,R21
00093a 0f55      	LSL  R21
00093b 9587      	ROR  R24
                 
                 __UNPACK1:
00093c e850      	LDI  R21,0x80
00093d 2e07      	MOV  R0,R23
00093e 2205      	AND  R0,R21
00093f 0f66      	LSL  R22
000940 1f77      	ROL  R23
000941 2775      	EOR  R23,R21
000942 0f55      	LSL  R21
000943 9567      	ROR  R22
000944 9508      	RET
                 
                 __CFD1U:
000945 9468      	SET
000946 c001      	RJMP __CFD1U0
                 __CFD1:
000947 94e8      	CLT
                 __CFD1U0:
000948 935f      	PUSH R21
000949 dff2      	RCALL __UNPACK1
00094a 3870      	CPI  R23,0x80
00094b f018      	BRLO __CFD10
00094c 3f7f      	CPI  R23,0xFF
00094d f408      	BRCC __CFD10
00094e c0a7      	RJMP __ZERORES
                 __CFD10:
00094f e156      	LDI  R21,22
000950 1b57      	SUB  R21,R23
000951 f4aa      	BRPL __CFD11
000952 9551      	NEG  R21
000953 3058      	CPI  R21,8
000954 f40e      	BRTC __CFD19
000955 3059      	CPI  R21,9
                 __CFD19:
000956 f030      	BRLO __CFD17
000957 efef      	SER  R30
000958 efff      	SER  R31
000959 ef6f      	SER  R22
00095a e77f      	LDI  R23,0x7F
00095b f977      	BLD  R23,7
00095c c01a      	RJMP __CFD15
                 __CFD17:
00095d 2777      	CLR  R23
00095e 2355      	TST  R21
00095f f0b9      	BREQ __CFD15
                 __CFD18:
000960 0fee      	LSL  R30
000961 1fff      	ROL  R31
000962 1f66      	ROL  R22
000963 1f77      	ROL  R23
000964 955a      	DEC  R21
000965 f7d1      	BRNE __CFD18
000966 c010      	RJMP __CFD15
                 __CFD11:
000967 2777      	CLR  R23
                 __CFD12:
000968 3058      	CPI  R21,8
000969 f028      	BRLO __CFD13
00096a 2fef      	MOV  R30,R31
00096b 2ff6      	MOV  R31,R22
00096c 2f67      	MOV  R22,R23
00096d 5058      	SUBI R21,8
00096e cff9      	RJMP __CFD12
                 __CFD13:
00096f 2355      	TST  R21
000970 f031      	BREQ __CFD15
                 __CFD14:
000971 9576      	LSR  R23
000972 9567      	ROR  R22
000973 95f7      	ROR  R31
000974 95e7      	ROR  R30
000975 955a      	DEC  R21
000976 f7d1      	BRNE __CFD14
                 __CFD15:
000977 2000      	TST  R0
000978 f40a      	BRPL __CFD16
000979 d145      	RCALL __ANEGD1
                 __CFD16:
00097a 915f      	POP  R21
00097b 9508      	RET
                 
                 __CDF1U:
00097c 9468      	SET
00097d c001      	RJMP __CDF1U0
                 __CDF1:
00097e 94e8      	CLT
                 __CDF1U0:
00097f 9730      	SBIW R30,0
000980 4060      	SBCI R22,0
000981 4070      	SBCI R23,0
000982 f0b1      	BREQ __CDF10
000983 2400      	CLR  R0
000984 f026      	BRTS __CDF11
000985 2377      	TST  R23
000986 f412      	BRPL __CDF11
000987 9400      	COM  R0
000988 d136      	RCALL __ANEGD1
                 __CDF11:
000989 2e17      	MOV  R1,R23
00098a e17e      	LDI  R23,30
00098b 2011      	TST  R1
                 __CDF12:
00098c f032      	BRMI __CDF13
00098d 957a      	DEC  R23
00098e 0fee      	LSL  R30
00098f 1fff      	ROL  R31
000990 1f66      	ROL  R22
000991 1c11      	ROL  R1
000992 cff9      	RJMP __CDF12
                 __CDF13:
000993 2fef      	MOV  R30,R31
000994 2ff6      	MOV  R31,R22
000995 2d61      	MOV  R22,R1
000996 935f      	PUSH R21
000997 df8a      	RCALL __REPACK
000998 915f      	POP  R21
                 __CDF10:
000999 9508      	RET
                 
                 __SWAPACC:
00099a 934f      	PUSH R20
00099b 01af      	MOVW R20,R30
00099c 01fd      	MOVW R30,R26
00099d 01da      	MOVW R26,R20
00099e 01ab      	MOVW R20,R22
00099f 01bc      	MOVW R22,R24
0009a0 01ca      	MOVW R24,R20
0009a1 2d40      	MOV  R20,R0
0009a2 2c01      	MOV  R0,R1
0009a3 2e14      	MOV  R1,R20
0009a4 914f      	POP  R20
0009a5 9508      	RET
                 
                 __UADD12:
0009a6 0fea      	ADD  R30,R26
0009a7 1ffb      	ADC  R31,R27
0009a8 1f68      	ADC  R22,R24
0009a9 9508      	RET
                 
                 __NEGMAN1:
0009aa 95e0      	COM  R30
0009ab 95f0      	COM  R31
0009ac 9560      	COM  R22
0009ad 5fef      	SUBI R30,-1
0009ae 4fff      	SBCI R31,-1
0009af 4f6f      	SBCI R22,-1
0009b0 9508      	RET
                 
                 __SUBF12:
0009b1 935f      	PUSH R21
0009b2 df81      	RCALL __UNPACK
0009b3 3890      	CPI  R25,0x80
0009b4 f171      	BREQ __ADDF129
0009b5 e850      	LDI  R21,0x80
0009b6 2615      	EOR  R1,R21
                 
0009b7 c004      	RJMP __ADDF120
                 
                 __ADDF12:
0009b8 935f      	PUSH R21
0009b9 df7a      	RCALL __UNPACK
0009ba 3890      	CPI  R25,0x80
0009bb f139      	BREQ __ADDF129
                 
                 __ADDF120:
0009bc 3870      	CPI  R23,0x80
0009bd f121      	BREQ __ADDF128
                 __ADDF121:
0009be 2f57      	MOV  R21,R23
0009bf 1b59      	SUB  R21,R25
0009c0 f12b      	BRVS __ADDF1211
0009c1 f412      	BRPL __ADDF122
0009c2 dfd7      	RCALL __SWAPACC
0009c3 cffa      	RJMP __ADDF121
                 __ADDF122:
0009c4 3158      	CPI  R21,24
0009c5 f018      	BRLO __ADDF123
0009c6 27aa      	CLR  R26
0009c7 27bb      	CLR  R27
0009c8 2788      	CLR  R24
                 __ADDF123:
0009c9 3058      	CPI  R21,8
0009ca f028      	BRLO __ADDF124
0009cb 2fab      	MOV  R26,R27
0009cc 2fb8      	MOV  R27,R24
0009cd 2788      	CLR  R24
0009ce 5058      	SUBI R21,8
0009cf cff9      	RJMP __ADDF123
                 __ADDF124:
0009d0 2355      	TST  R21
0009d1 f029      	BREQ __ADDF126
                 __ADDF125:
0009d2 9586      	LSR  R24
0009d3 95b7      	ROR  R27
0009d4 95a7      	ROR  R26
0009d5 955a      	DEC  R21
0009d6 f7d9      	BRNE __ADDF125
                 __ADDF126:
0009d7 2d50      	MOV  R21,R0
0009d8 2551      	EOR  R21,R1
0009d9 f072      	BRMI __ADDF127
0009da dfcb      	RCALL __UADD12
0009db f438      	BRCC __ADDF129
0009dc 9567      	ROR  R22
0009dd 95f7      	ROR  R31
0009de 95e7      	ROR  R30
0009df 9573      	INC  R23
0009e0 f413      	BRVC __ADDF129
0009e1 c020      	RJMP __MAXRES
                 __ADDF128:
0009e2 dfb7      	RCALL __SWAPACC
                 __ADDF129:
0009e3 df3e      	RCALL __REPACK
0009e4 915f      	POP  R21
0009e5 9508      	RET
                 __ADDF1211:
0009e6 f7d8      	BRCC __ADDF128
0009e7 cffb      	RJMP __ADDF129
                 __ADDF127:
0009e8 1bea      	SUB  R30,R26
0009e9 0bfb      	SBC  R31,R27
0009ea 0b68      	SBC  R22,R24
0009eb f051      	BREQ __ZERORES
0009ec f410      	BRCC __ADDF1210
0009ed 9400      	COM  R0
0009ee dfbb      	RCALL __NEGMAN1
                 __ADDF1210:
0009ef 2366      	TST  R22
0009f0 f392      	BRMI __ADDF129
0009f1 0fee      	LSL  R30
0009f2 1fff      	ROL  R31
0009f3 1f66      	ROL  R22
0009f4 957a      	DEC  R23
0009f5 f7cb      	BRVC __ADDF1210
                 
                 __ZERORES:
0009f6 27ee      	CLR  R30
0009f7 27ff      	CLR  R31
0009f8 2766      	CLR  R22
0009f9 2777      	CLR  R23
0009fa 915f      	POP  R21
0009fb 9508      	RET
                 
                 __MINRES:
0009fc efef      	SER  R30
0009fd efff      	SER  R31
0009fe e76f      	LDI  R22,0x7F
0009ff ef7f      	SER  R23
000a00 915f      	POP  R21
000a01 9508      	RET
                 
                 __MAXRES:
000a02 efef      	SER  R30
000a03 efff      	SER  R31
000a04 e76f      	LDI  R22,0x7F
000a05 e77f      	LDI  R23,0x7F
000a06 915f      	POP  R21
000a07 9508      	RET
                 
                 __MULF12:
000a08 935f      	PUSH R21
000a09 df2a      	RCALL __UNPACK
000a0a 3870      	CPI  R23,0x80
000a0b f351      	BREQ __ZERORES
000a0c 3890      	CPI  R25,0x80
000a0d f341      	BREQ __ZERORES
000a0e 2401      	EOR  R0,R1
000a0f 9408      	SEC
000a10 1f79      	ADC  R23,R25
000a11 f423      	BRVC __MULF124
000a12 f31c      	BRLT __ZERORES
                 __MULF125:
000a13 2000      	TST  R0
000a14 f33a      	BRMI __MINRES
000a15 cfec      	RJMP __MAXRES
                 __MULF124:
000a16 920f      	PUSH R0
000a17 931f      	PUSH R17
000a18 932f      	PUSH R18
000a19 933f      	PUSH R19
000a1a 934f      	PUSH R20
000a1b 2711      	CLR  R17
000a1c 2722      	CLR  R18
000a1d 2799      	CLR  R25
000a1e 9f68      	MUL  R22,R24
000a1f 01a0      	MOVW R20,R0
000a20 9f8f      	MUL  R24,R31
000a21 2d30      	MOV  R19,R0
000a22 0d41      	ADD  R20,R1
000a23 1f59      	ADC  R21,R25
000a24 9f6b      	MUL  R22,R27
000a25 0d30      	ADD  R19,R0
000a26 1d41      	ADC  R20,R1
000a27 1f59      	ADC  R21,R25
000a28 9f8e      	MUL  R24,R30
000a29 d027      	RCALL __MULF126
000a2a 9fbf      	MUL  R27,R31
000a2b d025      	RCALL __MULF126
000a2c 9f6a      	MUL  R22,R26
000a2d d023      	RCALL __MULF126
000a2e 9fbe      	MUL  R27,R30
000a2f d01d      	RCALL __MULF127
000a30 9faf      	MUL  R26,R31
000a31 d01b      	RCALL __MULF127
000a32 9fae      	MUL  R26,R30
000a33 0d11      	ADD  R17,R1
000a34 1f29      	ADC  R18,R25
000a35 1f39      	ADC  R19,R25
000a36 1f49      	ADC  R20,R25
000a37 1f59      	ADC  R21,R25
000a38 2fe3      	MOV  R30,R19
000a39 2ff4      	MOV  R31,R20
000a3a 2f65      	MOV  R22,R21
000a3b 2f52      	MOV  R21,R18
000a3c 914f      	POP  R20
000a3d 913f      	POP  R19
000a3e 912f      	POP  R18
000a3f 911f      	POP  R17
000a40 900f      	POP  R0
000a41 2366      	TST  R22
000a42 f02a      	BRMI __MULF122
000a43 0f55      	LSL  R21
000a44 1fee      	ROL  R30
000a45 1fff      	ROL  R31
000a46 1f66      	ROL  R22
000a47 c002      	RJMP __MULF123
                 __MULF122:
000a48 9573      	INC  R23
000a49 f24b      	BRVS __MULF125
                 __MULF123:
000a4a decd      	RCALL __ROUND_REPACK
000a4b 915f      	POP  R21
000a4c 9508      	RET
                 
                 __MULF127:
000a4d 0d10      	ADD  R17,R0
000a4e 1d21      	ADC  R18,R1
000a4f 1f39      	ADC  R19,R25
000a50 c002      	RJMP __MULF128
                 __MULF126:
000a51 0d20      	ADD  R18,R0
000a52 1d31      	ADC  R19,R1
                 __MULF128:
000a53 1f49      	ADC  R20,R25
000a54 1f59      	ADC  R21,R25
000a55 9508      	RET
                 
                 __DIVF21:
000a56 935f      	PUSH R21
000a57 dedc      	RCALL __UNPACK
000a58 3870      	CPI  R23,0x80
000a59 f421      	BRNE __DIVF210
000a5a 2011      	TST  R1
                 __DIVF211:
000a5b f40a      	BRPL __DIVF219
000a5c cf9f      	RJMP __MINRES
                 __DIVF219:
000a5d cfa4      	RJMP __MAXRES
                 __DIVF210:
000a5e 3890      	CPI  R25,0x80
000a5f f409      	BRNE __DIVF218
                 __DIVF217:
000a60 cf95      	RJMP __ZERORES
                 __DIVF218:
000a61 2401      	EOR  R0,R1
000a62 9408      	SEC
000a63 0b97      	SBC  R25,R23
000a64 f41b      	BRVC __DIVF216
000a65 f3d4      	BRLT __DIVF217
000a66 2000      	TST  R0
000a67 cff3      	RJMP __DIVF211
                 __DIVF216:
000a68 2f79      	MOV  R23,R25
000a69 931f      	PUSH R17
000a6a 932f      	PUSH R18
000a6b 933f      	PUSH R19
000a6c 934f      	PUSH R20
000a6d 2411      	CLR  R1
000a6e 2711      	CLR  R17
000a6f 2722      	CLR  R18
000a70 2733      	CLR  R19
000a71 2744      	CLR  R20
000a72 2755      	CLR  R21
000a73 e290      	LDI  R25,32
                 __DIVF212:
000a74 17ae      	CP   R26,R30
000a75 07bf      	CPC  R27,R31
000a76 0786      	CPC  R24,R22
000a77 0741      	CPC  R20,R17
000a78 f030      	BRLO __DIVF213
000a79 1bae      	SUB  R26,R30
000a7a 0bbf      	SBC  R27,R31
000a7b 0b86      	SBC  R24,R22
000a7c 0b41      	SBC  R20,R17
000a7d 9408      	SEC
000a7e c001      	RJMP __DIVF214
                 __DIVF213:
000a7f 9488      	CLC
                 __DIVF214:
000a80 1f55      	ROL  R21
000a81 1f22      	ROL  R18
000a82 1f33      	ROL  R19
000a83 1c11      	ROL  R1
000a84 1faa      	ROL  R26
000a85 1fbb      	ROL  R27
000a86 1f88      	ROL  R24
000a87 1f44      	ROL  R20
000a88 959a      	DEC  R25
000a89 f751      	BRNE __DIVF212
000a8a 01f9      	MOVW R30,R18
000a8b 2d61      	MOV  R22,R1
000a8c 914f      	POP  R20
000a8d 913f      	POP  R19
000a8e 912f      	POP  R18
000a8f 911f      	POP  R17
000a90 2366      	TST  R22
000a91 f032      	BRMI __DIVF215
000a92 0f55      	LSL  R21
000a93 1fee      	ROL  R30
000a94 1fff      	ROL  R31
000a95 1f66      	ROL  R22
000a96 957a      	DEC  R23
000a97 f243      	BRVS __DIVF217
                 __DIVF215:
000a98 de7f      	RCALL __ROUND_REPACK
000a99 915f      	POP  R21
000a9a 9508      	RET
                 
                 __CMPF12:
000a9b 2399      	TST  R25
000a9c f09a      	BRMI __CMPF120
000a9d 2377      	TST  R23
000a9e f042      	BRMI __CMPF121
000a9f 1797      	CP   R25,R23
000aa0 f048      	BRLO __CMPF122
000aa1 f429      	BRNE __CMPF121
000aa2 17ae      	CP   R26,R30
000aa3 07bf      	CPC  R27,R31
000aa4 0786      	CPC  R24,R22
000aa5 f020      	BRLO __CMPF122
000aa6 f031      	BREQ __CMPF123
                 __CMPF121:
000aa7 9498      	CLZ
000aa8 9488      	CLC
000aa9 9508      	RET
                 __CMPF122:
000aaa 9498      	CLZ
000aab 9408      	SEC
000aac 9508      	RET
                 __CMPF123:
000aad 9418      	SEZ
000aae 9488      	CLC
000aaf 9508      	RET
                 __CMPF120:
000ab0 2377      	TST  R23
000ab1 f7c2      	BRPL __CMPF122
000ab2 1797      	CP   R25,R23
000ab3 f398      	BRLO __CMPF121
000ab4 f7a9      	BRNE __CMPF122
000ab5 17ea      	CP   R30,R26
000ab6 07fb      	CPC  R31,R27
000ab7 0768      	CPC  R22,R24
000ab8 f388      	BRLO __CMPF122
000ab9 f399      	BREQ __CMPF123
000aba cfec      	RJMP __CMPF121
                 
                 __ADDW2R15:
000abb 2400      	CLR  R0
000abc 0daf      	ADD  R26,R15
000abd 1db0      	ADC  R27,R0
000abe 9508      	RET
                 
                 __ANEGD1:
000abf 95f0      	COM  R31
000ac0 9560      	COM  R22
000ac1 9570      	COM  R23
000ac2 95e1      	NEG  R30
000ac3 4fff      	SBCI R31,-1
000ac4 4f6f      	SBCI R22,-1
000ac5 4f7f      	SBCI R23,-1
000ac6 9508      	RET
                 
                 __CBD1:
000ac7 2ffe      	MOV  R31,R30
000ac8 0fff      	ADD  R31,R31
000ac9 0bff      	SBC  R31,R31
000aca 2f6f      	MOV  R22,R31
000acb 2f7f      	MOV  R23,R31
000acc 9508      	RET
                 
                 __CWD1:
000acd 2f6f      	MOV  R22,R31
000ace 0f66      	ADD  R22,R22
000acf 0b66      	SBC  R22,R22
000ad0 2f76      	MOV  R23,R22
000ad1 9508      	RET
                 
                 __DIVB21U:
000ad2 2400      	CLR  R0
000ad3 e098      	LDI  R25,8
                 __DIVB21U1:
000ad4 0faa      	LSL  R26
000ad5 1c00      	ROL  R0
000ad6 1a0e      	SUB  R0,R30
000ad7 f410      	BRCC __DIVB21U2
000ad8 0e0e      	ADD  R0,R30
000ad9 c001      	RJMP __DIVB21U3
                 __DIVB21U2:
000ada 60a1      	SBR  R26,1
                 __DIVB21U3:
000adb 959a      	DEC  R25
000adc f7b9      	BRNE __DIVB21U1
000add 2fea      	MOV  R30,R26
000ade 2da0      	MOV  R26,R0
000adf 9508      	RET
                 
                 __DIVB21:
000ae0 d039      	RCALL __CHKSIGNB
000ae1 dff0      	RCALL __DIVB21U
000ae2 f40e      	BRTC __DIVB211
000ae3 95e1      	NEG  R30
                 __DIVB211:
000ae4 9508      	RET
                 
                 __DIVD21U:
000ae5 933f      	PUSH R19
000ae6 934f      	PUSH R20
000ae7 935f      	PUSH R21
000ae8 2400      	CLR  R0
000ae9 2411      	CLR  R1
000aea 2744      	CLR  R20
000aeb 2755      	CLR  R21
000aec e230      	LDI  R19,32
                 __DIVD21U1:
000aed 0faa      	LSL  R26
000aee 1fbb      	ROL  R27
000aef 1f88      	ROL  R24
000af0 1f99      	ROL  R25
000af1 1c00      	ROL  R0
000af2 1c11      	ROL  R1
000af3 1f44      	ROL  R20
000af4 1f55      	ROL  R21
000af5 1a0e      	SUB  R0,R30
000af6 0a1f      	SBC  R1,R31
000af7 0b46      	SBC  R20,R22
000af8 0b57      	SBC  R21,R23
000af9 f428      	BRCC __DIVD21U2
000afa 0e0e      	ADD  R0,R30
000afb 1e1f      	ADC  R1,R31
000afc 1f46      	ADC  R20,R22
000afd 1f57      	ADC  R21,R23
000afe c001      	RJMP __DIVD21U3
                 __DIVD21U2:
000aff 60a1      	SBR  R26,1
                 __DIVD21U3:
000b00 953a      	DEC  R19
000b01 f759      	BRNE __DIVD21U1
000b02 01fd      	MOVW R30,R26
000b03 01bc      	MOVW R22,R24
000b04 01d0      	MOVW R26,R0
000b05 01ca      	MOVW R24,R20
000b06 915f      	POP  R21
000b07 914f      	POP  R20
000b08 913f      	POP  R19
000b09 9508      	RET
                 
                 __MODB21:
000b0a 94e8      	CLT
000b0b ffa7      	SBRS R26,7
000b0c c002      	RJMP __MODB211
000b0d 95a1      	NEG  R26
000b0e 9468      	SET
                 __MODB211:
000b0f fde7      	SBRC R30,7
000b10 95e1      	NEG  R30
000b11 dfc0      	RCALL __DIVB21U
000b12 2fea      	MOV  R30,R26
000b13 f40e      	BRTC __MODB212
000b14 95e1      	NEG  R30
                 __MODB212:
000b15 9508      	RET
                 
                 __MODD21U:
000b16 dfce      	RCALL __DIVD21U
000b17 01fd      	MOVW R30,R26
000b18 01bc      	MOVW R22,R24
000b19 9508      	RET
                 
                 __CHKSIGNB:
000b1a 94e8      	CLT
000b1b ffe7      	SBRS R30,7
000b1c c002      	RJMP __CHKSB1
000b1d 95e1      	NEG  R30
000b1e 9468      	SET
                 __CHKSB1:
000b1f ffa7      	SBRS R26,7
000b20 c004      	RJMP __CHKSB2
000b21 95a1      	NEG  R26
000b22 f800      	BLD  R0,0
000b23 9403      	INC  R0
000b24 fa00      	BST  R0,0
                 __CHKSB2:
000b25 9508      	RET
                 
                 __GETW1P:
000b26 91ed      	LD   R30,X+
000b27 91fc      	LD   R31,X
000b28 9711      	SBIW R26,1
000b29 9508      	RET
                 
                 __GETD1P:
000b2a 91ed      	LD   R30,X+
000b2b 91fd      	LD   R31,X+
000b2c 916d      	LD   R22,X+
000b2d 917c      	LD   R23,X
000b2e 9713      	SBIW R26,3
000b2f 9508      	RET
                 
                 __GETD1S0:
000b30 81e8      	LD   R30,Y
000b31 81f9      	LDD  R31,Y+1
000b32 816a      	LDD  R22,Y+2
000b33 817b      	LDD  R23,Y+3
000b34 9508      	RET
                 
                 __GETD2S0:
000b35 81a8      	LD   R26,Y
000b36 81b9      	LDD  R27,Y+1
000b37 818a      	LDD  R24,Y+2
000b38 819b      	LDD  R25,Y+3
000b39 9508      	RET
                 
                 __PUTD1S0:
000b3a 83e8      	ST   Y,R30
000b3b 83f9      	STD  Y+1,R31
000b3c 836a      	STD  Y+2,R22
000b3d 837b      	STD  Y+3,R23
000b3e 9508      	RET
                 
                 __PUTPARD1:
000b3f 937a      	ST   -Y,R23
000b40 936a      	ST   -Y,R22
000b41 93fa      	ST   -Y,R31
000b42 93ea      	ST   -Y,R30
000b43 9508      	RET
                 
                 __PUTPARD2:
000b44 939a      	ST   -Y,R25
000b45 938a      	ST   -Y,R24
000b46 93ba      	ST   -Y,R27
000b47 93aa      	ST   -Y,R26
000b48 9508      	RET
                 
                 __SWAPD12:
000b49 2e18      	MOV  R1,R24
000b4a 2f86      	MOV  R24,R22
000b4b 2d61      	MOV  R22,R1
000b4c 2e19      	MOV  R1,R25
000b4d 2f97      	MOV  R25,R23
000b4e 2d71      	MOV  R23,R1
                 
                 __SWAPW12:
000b4f 2e1b      	MOV  R1,R27
000b50 2fbf      	MOV  R27,R31
000b51 2df1      	MOV  R31,R1
                 
                 __SWAPB12:
000b52 2e1a      	MOV  R1,R26
000b53 2fae      	MOV  R26,R30
000b54 2de1      	MOV  R30,R1
000b55 9508      	RET
                 
                 __CPD10:
000b56 9730      	SBIW R30,0
000b57 4060      	SBCI R22,0
000b58 4070      	SBCI R23,0
000b59 9508      	RET
                 
                 __SAVELOCR6:
000b5a 935a      	ST   -Y,R21
                 __SAVELOCR5:
000b5b 934a      	ST   -Y,R20
                 __SAVELOCR4:
000b5c 933a      	ST   -Y,R19
                 __SAVELOCR3:
000b5d 932a      	ST   -Y,R18
                 __SAVELOCR2:
000b5e 931a      	ST   -Y,R17
000b5f 930a      	ST   -Y,R16
000b60 9508      	RET
                 
                 __LOADLOCR6:
000b61 815d      	LDD  R21,Y+5
                 __LOADLOCR5:
000b62 814c      	LDD  R20,Y+4
                 __LOADLOCR4:
000b63 813b      	LDD  R19,Y+3
                 __LOADLOCR3:
000b64 812a      	LDD  R18,Y+2
                 __LOADLOCR2:
000b65 8119      	LDD  R17,Y+1
000b66 8108      	LD   R16,Y
000b67 9508      	RET
                 
                 ;END OF CODE MARKER
                 __END_OF_CODE:


RESOURCE USE INFORMATION
------------------------

Notice:
The register and instruction counts are symbol table hit counts,
and hence implicitly used resources are not counted, eg, the
'lpm' instruction without operands implicitly uses r0 and z,
none of which are counted.

x,y,z are separate entities in the symbol table and are
counted separately from r26..r31 here.

.dseg memory usage only counts static data declared with .byte

ATmega16A register use summary:
r0 :  60 r1 :  34 r2 :   1 r3 :   0 r4 :   8 r5 :   0 r6 :   2 r7 :   0 
r8 :   4 r9 :   4 r10:   4 r11:   6 r12:   5 r13:   4 r14:   0 r15:   7 
r16:  57 r17:  76 r18:  48 r19:  35 r20:  50 r21:  90 r22: 114 r23:  99 
r24:  82 r25:  64 r26: 255 r27: 110 r28:  42 r29:   1 r30: 496 r31: 175 
x  :  40 y  : 443 z  :  29 
Registers used: 31 out of 35 (88.6%)

ATmega16A instruction use summary:
.lds  :   0 .lds.l:   0 .sts  :   0 .sts.l:   0 adc   :  21 add   :  14 
adiw  :  43 and   :   5 andi  :   8 asr   :   0 bclr  :   0 bld   :   4 
brbc  :   0 brbs  :   0 brcc  :   8 brcs  :   1 break :   0 breq  :  51 
brge  :   1 brhc  :   0 brhs  :   0 brid  :   0 brie  :   0 brlo  :  27 
brlt  :   2 brmi  :  11 brne  :  72 brpl  :   9 brsh  :   6 brtc  :   4 
brts  :   1 brvc  :   4 brvs  :   4 bset  :   0 bst   :   3 call  : 217 
cbi   :   5 cbr   :   1 clc   :   3 clh   :   0 cli   :   3 cln   :   0 
clr   :  54 cls   :   0 clt   :   5 clv   :   0 clz   :   2 com   :   8 
cp    :  20 cpc   :  22 cpi   :  86 cpse  :   0 dec   :  18 des   :   0 
eor   :   7 fmul  :   0 fmuls :   0 fmulsu:   0 icall :   3 ijmp  :   0 
in    :   9 inc   :   9 jmp   :  33 ld    :  64 ldd   : 220 ldi   : 280 
lds   :   4 lpm   :  14 lsl   :  14 lsr   :   3 mov   :  90 movw  :  64 
mul   :  11 muls  :   0 mulsu :   0 neg   :   9 nop   :   0 or    :   1 
ori   :  10 out   :  35 pop   :  23 push  :  23 rcall :  90 ret   :  95 
reti  :   1 rjmp  : 149 rol   :  32 ror   :  15 sbc   :  11 sbci  :  24 
sbi   :   7 sbic  :   1 sbis  :   3 sbiw  :  34 sbr   :   4 sbrc  :   4 
sbrs  :  20 sec   :   5 seh   :   0 sei   :   2 sen   :   0 ser   :   8 
ses   :   0 set   :   5 sev   :   0 sez   :   1 sleep :   0 spm   :   0 
st    : 119 std   :  97 sts   :   9 sub   :   6 subi  :  54 swap  :   1 
tst   :  28 wdr   :   1 
Instructions used: 83 out of 116 (71.6%)

ATmega16A memory use summary [bytes]:
Segment   Begin    End      Code   Data   Used    Size   Use%
---------------------------------------------------------------
[.cseg] 0x000000 0x0016d0   5512    328   5840   16384  35.6%
[.dseg] 0x000060 0x00018b      0     43     43    1024   4.2%
[.eseg] 0x000000 0x000000      0      0      0     512   0.0%

Assembly complete, 0 errors, 14 warnings
